; generated by Component: ARM Compiler 5.06 update 7 (build 960) Tool: ArmCC [4d365d]
; commandline ArmCC [--c99 --list --split_sections --debug -c --asm --interleave -o.\obj\appserialcandavinciparameter.o --asm_dir=.\List\ --list_dir=.\List\ --depend=.\obj\appserialcandavinciparameter.d --cpu=Cortex-M4.fp.sp --apcs=interwork -O1 --diag_suppress=9931 -I../Inc -I../../../Drivers/CMSIS/Include -I../../../Drivers/CMSIS/Device/ST/STM32L4xx/Include -I../../../Drivers/STM32L4xx_HAL_Driver/Inc -I../../../Drivers/BSP/STM32L4xx_Nucleo_144 -I..\..\..\User -I..\..\..\HAL -I..\..\..\Lib -I..\..\..\Config_Common -I..\..\..\AppProtect -I..\..\..\APP -I..\..\..\Lib\SMP -I..\..\..\Drivers\SMP -I..\..\..\BSP -I..\..\..\Drivers\BSP\STM32L496V_Davinci -I..\..\..\API -I..\..\..\AppCommunication -I..\..\..\Drivers\W5500 -I..\..\..\RTT -I.\RTE\_HVESS_Normal -IC:\Users\88691\AppData\Local\Arm\Packs\ARM\CMSIS\5.8.0\CMSIS\Core\Include -IC:\Users\88691\AppData\Local\Arm\Packs\Keil\STM32L4xx_DFP\2.6.0\Drivers\CMSIS\Device\ST\STM32L4xx\Include -D__MICROLIB -D__UVISION_VERSION=535 -D_RTE_ -DSTM32L496xx -D_RTE_ -DSTM32L496xx -DUSE_HAL_DRIVER -DUSE_STM32L4XX_NUCLEO_144 -DBSPSMPS -DUSE_STM32L4XX_NUCLEO_144_SMPS -DUSE_ADP5301ACBZ -W ..\..\..\AppCommunication\AppSerialCanDavinciParameter.c]
                          THUMB

                          AREA ||i.DavinciCanParameterAfeCommunication||, CODE, READONLY, ALIGN=2

                  DavinciCanParameterAfeCommunication PROC
;;;455    
;;;456    static void DavinciCanParameterAfeCommunication(smp_can_package_t *pCanPkg)
000000  b510              PUSH     {r4,lr}
;;;457    {
000002  b088              SUB      sp,sp,#0x20
000004  4604              MOV      r4,r0
;;;458    	smp_can_package_t	CanPkg;
;;;459    	tScuProtectPar		ProtectPar;
;;;460    		
;;;461    	if(SMP_CAN_GET_OBJ_INDEX(pCanPkg->id) == SMP_CMD_PAR_RD_OBJ_INDEX)
000006  6820              LDR      r0,[r4,#0]
000008  f3c02087          UBFX     r0,r0,#10,#8
00000c  2801              CMP      r0,#1
00000e  d00f              BEQ      |L1.48|
;;;462    	{
;;;463    		CanPkg.id = MAKE_SMP_CAN_ID(SMP_CAN_FUN_CMD_TX, canParScuId(),
;;;464    									SMP_CMD_PAR_RD_OBJ_INDEX,
;;;465    									SMP_PAR_ID_COMMUNICATION);
;;;466    		CanPkg.dlc = 3;
;;;467    
;;;468    		CanPkg.dat[0] = pCanPkg->dat[0];
;;;469    		if(pCanPkg->dat[0] == 0x00)
;;;470    		{
;;;471    			apiSysParGetAfeCommTime(&ProtectPar);
;;;472    			appSerialCanDavinciParDebugMsg("Read AFE comm.");			
;;;473    			CanPkg.dat[1] = ProtectPar.SetValue.b[0];
;;;474    			CanPkg.dat[2] = ProtectPar.STime.b[0];
;;;475    		}
;;;476    	}
;;;477    	else if(isParWritable())
000010  f7fffffe          BL       isParWritable
000014  2800              CMP      r0,#0
000016  d02f              BEQ      |L1.120|
;;;478    	{
;;;479    		CanPkg.id = MAKE_SMP_CAN_ID(SMP_CAN_FUN_CMD_TX, canParScuId(),
000018  f7fffffe          BL       appProjectGetScuId
00001c  4917              LDR      r1,|L1.124|
00001e  ea414080          ORR      r0,r1,r0,LSL #18
000022  9004              STR      r0,[sp,#0x10]
;;;480    									SMP_CMD_PAR_WR_OBJ_INDEX,
;;;481    									SMP_PAR_ID_COMMUNICATION);																		
;;;482    		CanPkg.dlc = 0;
000024  2000              MOVS     r0,#0
000026  f88d0014          STRB     r0,[sp,#0x14]
;;;483    		if(pCanPkg->dat[0] == 0x00)
00002a  7960              LDRB     r0,[r4,#5]
00002c  b1d0              CBZ      r0,|L1.100|
00002e  e020              B        |L1.114|
                  |L1.48|
000030  f7fffffe          BL       appProjectGetScuId
000034  4912              LDR      r1,|L1.128|
000036  ea414080          ORR      r0,r1,r0,LSL #18      ;463
00003a  9004              STR      r0,[sp,#0x10]         ;463
00003c  2003              MOVS     r0,#3                 ;466
00003e  f88d0014          STRB     r0,[sp,#0x14]         ;466
000042  7960              LDRB     r0,[r4,#5]            ;468
000044  f88d0015          STRB     r0,[sp,#0x15]         ;468
000048  7960              LDRB     r0,[r4,#5]            ;469
00004a  b990              CBNZ     r0,|L1.114|
00004c  4668              MOV      r0,sp                 ;471
00004e  f7fffffe          BL       apiSysParGetAfeCommTime
000052  f89d0000          LDRB     r0,[sp,#0]            ;473
000056  f88d0016          STRB     r0,[sp,#0x16]         ;473
00005a  f89d0004          LDRB     r0,[sp,#4]            ;474
00005e  f88d0017          STRB     r0,[sp,#0x17]         ;474
000062  e006              B        |L1.114|
                  |L1.100|
;;;484    		{
;;;485    			ProtectPar.SetValue.l = pCanPkg->dat[1];
000064  79a0              LDRB     r0,[r4,#6]
000066  9000              STR      r0,[sp,#0]
;;;486    			ProtectPar.STime.l = pCanPkg->dat[2];
000068  79e0              LDRB     r0,[r4,#7]
00006a  9001              STR      r0,[sp,#4]
;;;487    			apiSysParSetAfeCommTime(&ProtectPar);
00006c  4668              MOV      r0,sp
00006e  f7fffffe          BL       apiSysParSetAfeCommTime
                  |L1.114|
;;;488    			
;;;489    			appSerialCanDavinciParDebugMsg("Write AFE comm.");			
;;;490    		}
;;;491    	}
;;;492    	else
;;;493    		return;
;;;494    	appSerialCanDavinciPutPkgToCanFifo(&CanPkg);	
000072  a804              ADD      r0,sp,#0x10
000074  f7fffffe          BL       appSerialCanDavinciPutPkgToCanFifo
                  |L1.120|
;;;495    } 
000078  b008              ADD      sp,sp,#0x20
00007a  bd10              POP      {r4,pc}
;;;496    
                          ENDP

                  |L1.124|
                          DCD      0x06000032
                  |L1.128|
                          DCD      0x06000432

                          AREA ||i.DavinciCanParameterBalanceChg||, CODE, READONLY, ALIGN=2

                  DavinciCanParameterBalanceChg PROC
;;;1213   
;;;1214   static void DavinciCanParameterBalanceChg(smp_can_package_t *pCanPkg)
000000  b510              PUSH     {r4,lr}
;;;1215   {
000002  b088              SUB      sp,sp,#0x20
000004  4604              MOV      r4,r0
;;;1216   	smp_can_package_t	CanPkg;
;;;1217   	tScuProtectPar		ProtectPar;
;;;1218   	
;;;1219   	if(SMP_CAN_GET_OBJ_INDEX(pCanPkg->id) == SMP_CMD_PAR_RD_OBJ_INDEX)
000006  6820              LDR      r0,[r4,#0]
000008  f3c02087          UBFX     r0,r0,#10,#8
00000c  2801              CMP      r0,#1
00000e  d028              BEQ      |L2.98|
;;;1220   	{
;;;1221   		appSerialCanDavinciParDebugMsg("Read Balance Chg");
;;;1222   		CanPkg.id = MAKE_SMP_CAN_ID(SMP_CAN_FUN_CMD_TX, canParScuId(),
;;;1223   									SMP_CMD_PAR_RD_OBJ_INDEX,
;;;1224   									SMP_PAR_ID_BALANCE_CHG);
;;;1225   		CanPkg.dlc = 8;
;;;1226   		apiSysParGetBalanceChg(&ProtectPar);
;;;1227   		CanPkg.dat[0] = ProtectPar.SetValue.b[0];
;;;1228   		CanPkg.dat[1] = ProtectPar.SetValue.b[1];
;;;1229   		CanPkg.dat[2] = ProtectPar.STime.b[0];
;;;1230   		CanPkg.dat[3] = ProtectPar.STime.b[1];
;;;1231   		CanPkg.dat[4] = ProtectPar.RelValue.b[0];
;;;1232   		CanPkg.dat[5] = ProtectPar.RelValue.b[1];
;;;1233   		CanPkg.dat[6] = ProtectPar.RTime.b[0];
;;;1234   		CanPkg.dat[7] = ProtectPar.RTime.b[1];
;;;1235   	}
;;;1236   	else if(isParWritable())
000010  f7fffffe          BL       isParWritable
000014  2800              CMP      r0,#0
000016  d022              BEQ      |L2.94|
;;;1237   	{
;;;1238   		CanPkg.id = MAKE_SMP_CAN_ID(SMP_CAN_FUN_CMD_TX, canParScuId(),
000018  f7fffffe          BL       appProjectGetScuId
00001c  4927              LDR      r1,|L2.188|
00001e  ea414080          ORR      r0,r1,r0,LSL #18
000022  9004              STR      r0,[sp,#0x10]
;;;1239   									SMP_CMD_PAR_WR_OBJ_INDEX,
;;;1240   									SMP_PAR_ID_BALANCE_CHG);
;;;1241   
;;;1242   		CanPkg.dlc = 0;
000024  2000              MOVS     r0,#0
000026  f88d0014          STRB     r0,[sp,#0x14]
;;;1243   		
;;;1244   		ProtectPar.SetValue.l = GET_WORD(&pCanPkg->dat[0]);
00002a  7960              LDRB     r0,[r4,#5]
00002c  79a1              LDRB     r1,[r4,#6]
00002e  eb002001          ADD      r0,r0,r1,LSL #8
000032  9000              STR      r0,[sp,#0]
;;;1245   		ProtectPar.STime.l = GET_WORD(&pCanPkg->dat[2]);
000034  79e0              LDRB     r0,[r4,#7]
000036  7a21              LDRB     r1,[r4,#8]
000038  eb002001          ADD      r0,r0,r1,LSL #8
00003c  9001              STR      r0,[sp,#4]
;;;1246   		ProtectPar.RelValue.l = GET_WORD(&pCanPkg->dat[4]);
00003e  7a60              LDRB     r0,[r4,#9]
000040  7aa1              LDRB     r1,[r4,#0xa]
000042  eb002001          ADD      r0,r0,r1,LSL #8
000046  9002              STR      r0,[sp,#8]
;;;1247   		ProtectPar.RTime.l = GET_WORD(&pCanPkg->dat[6]);
000048  7ae0              LDRB     r0,[r4,#0xb]
00004a  7b21              LDRB     r1,[r4,#0xc]
00004c  eb002001          ADD      r0,r0,r1,LSL #8
000050  9003              STR      r0,[sp,#0xc]
;;;1248   		apiSysParSetBalanceChg(&ProtectPar);
000052  4668              MOV      r0,sp
000054  f7fffffe          BL       apiSysParSetBalanceChg
                  |L2.88|
;;;1249   		
;;;1250   		appSerialCanDavinciParDebugMsg("Write Balance Chg");
;;;1251   	}
;;;1252   	else
;;;1253   		return;
;;;1254   	appSerialCanDavinciPutPkgToCanFifo(&CanPkg);
000058  a804              ADD      r0,sp,#0x10
00005a  f7fffffe          BL       appSerialCanDavinciPutPkgToCanFifo
                  |L2.94|
;;;1255   	
;;;1256   }
00005e  b008              ADD      sp,sp,#0x20
000060  bd10              POP      {r4,pc}
                  |L2.98|
000062  f7fffffe          BL       appProjectGetScuId
000066  4916              LDR      r1,|L2.192|
000068  ea414080          ORR      r0,r1,r0,LSL #18      ;1222
00006c  9004              STR      r0,[sp,#0x10]         ;1222
00006e  2008              MOVS     r0,#8                 ;1225
000070  f88d0014          STRB     r0,[sp,#0x14]         ;1225
000074  4668              MOV      r0,sp                 ;1226
000076  f7fffffe          BL       apiSysParGetBalanceChg
00007a  f89d0000          LDRB     r0,[sp,#0]            ;1227
00007e  f88d0015          STRB     r0,[sp,#0x15]         ;1227
000082  f89d0001          LDRB     r0,[sp,#1]            ;1228
000086  f88d0016          STRB     r0,[sp,#0x16]         ;1228
00008a  f89d0004          LDRB     r0,[sp,#4]            ;1229
00008e  f88d0017          STRB     r0,[sp,#0x17]         ;1229
000092  f89d0005          LDRB     r0,[sp,#5]            ;1230
000096  f88d0018          STRB     r0,[sp,#0x18]         ;1230
00009a  f89d0008          LDRB     r0,[sp,#8]            ;1231
00009e  f88d0019          STRB     r0,[sp,#0x19]         ;1231
0000a2  f89d0009          LDRB     r0,[sp,#9]            ;1232
0000a6  f88d001a          STRB     r0,[sp,#0x1a]         ;1232
0000aa  f89d000c          LDRB     r0,[sp,#0xc]          ;1233
0000ae  f88d001b          STRB     r0,[sp,#0x1b]         ;1233
0000b2  f89d000d          LDRB     r0,[sp,#0xd]          ;1234
0000b6  f88d001c          STRB     r0,[sp,#0x1c]         ;1234
0000ba  e7cd              B        |L2.88|
;;;1257   static void DavinciCanParameterBalanceDhg(smp_can_package_t *pCanPkg)
                          ENDP

                  |L2.188|
                          DCD      0x06000081
                  |L2.192|
                          DCD      0x06000481

                          AREA ||i.DavinciCanParameterBalanceDhg||, CODE, READONLY, ALIGN=2

                  DavinciCanParameterBalanceDhg PROC
;;;1256   }
;;;1257   static void DavinciCanParameterBalanceDhg(smp_can_package_t *pCanPkg)
000000  b510              PUSH     {r4,lr}
;;;1258   {
000002  b088              SUB      sp,sp,#0x20
000004  4604              MOV      r4,r0
;;;1259   	smp_can_package_t	CanPkg;
;;;1260   	tScuProtectPar		ProtectPar;
;;;1261   	
;;;1262   	if(SMP_CAN_GET_OBJ_INDEX(pCanPkg->id) == SMP_CMD_PAR_RD_OBJ_INDEX)
000006  6820              LDR      r0,[r4,#0]
000008  f3c02087          UBFX     r0,r0,#10,#8
00000c  2801              CMP      r0,#1
00000e  d028              BEQ      |L3.98|
;;;1263   	{
;;;1264   		appSerialCanDavinciParDebugMsg("Read Balance Dhg");
;;;1265   		CanPkg.id = MAKE_SMP_CAN_ID(SMP_CAN_FUN_CMD_TX, canParScuId(),
;;;1266   									SMP_CMD_PAR_RD_OBJ_INDEX,
;;;1267   									SMP_PAR_ID_BALANCE_DHG);
;;;1268   		CanPkg.dlc = 8;
;;;1269   		apiSysParGetBalanceDhg(&ProtectPar);
;;;1270   		CanPkg.dat[0] = ProtectPar.SetValue.b[0];
;;;1271   		CanPkg.dat[1] = ProtectPar.SetValue.b[1];
;;;1272   		CanPkg.dat[2] = ProtectPar.STime.b[0];
;;;1273   		CanPkg.dat[3] = ProtectPar.STime.b[1];
;;;1274   		CanPkg.dat[4] = ProtectPar.RelValue.b[0];
;;;1275   		CanPkg.dat[5] = ProtectPar.RelValue.b[1];
;;;1276   		CanPkg.dat[6] = ProtectPar.RTime.b[0];
;;;1277   		CanPkg.dat[7] = ProtectPar.RTime.b[1];
;;;1278   	}
;;;1279   	else if(isParWritable())
000010  f7fffffe          BL       isParWritable
000014  2800              CMP      r0,#0
000016  d022              BEQ      |L3.94|
;;;1280   	{
;;;1281   		CanPkg.id = MAKE_SMP_CAN_ID(SMP_CAN_FUN_CMD_TX, canParScuId(),
000018  f7fffffe          BL       appProjectGetScuId
00001c  4927              LDR      r1,|L3.188|
00001e  ea414080          ORR      r0,r1,r0,LSL #18
000022  9004              STR      r0,[sp,#0x10]
;;;1282   									SMP_CMD_PAR_WR_OBJ_INDEX,
;;;1283   									SMP_PAR_ID_BALANCE_DHG);
;;;1284   
;;;1285   		CanPkg.dlc = 0;
000024  2000              MOVS     r0,#0
000026  f88d0014          STRB     r0,[sp,#0x14]
;;;1286   		
;;;1287   		ProtectPar.SetValue.l = GET_WORD(&pCanPkg->dat[0]);
00002a  7960              LDRB     r0,[r4,#5]
00002c  79a1              LDRB     r1,[r4,#6]
00002e  eb002001          ADD      r0,r0,r1,LSL #8
000032  9000              STR      r0,[sp,#0]
;;;1288   		ProtectPar.STime.l = GET_WORD(&pCanPkg->dat[2]);
000034  79e0              LDRB     r0,[r4,#7]
000036  7a21              LDRB     r1,[r4,#8]
000038  eb002001          ADD      r0,r0,r1,LSL #8
00003c  9001              STR      r0,[sp,#4]
;;;1289   		ProtectPar.RelValue.l = GET_WORD(&pCanPkg->dat[4]);
00003e  7a60              LDRB     r0,[r4,#9]
000040  7aa1              LDRB     r1,[r4,#0xa]
000042  eb002001          ADD      r0,r0,r1,LSL #8
000046  9002              STR      r0,[sp,#8]
;;;1290   		ProtectPar.RTime.l = GET_WORD(&pCanPkg->dat[6]);
000048  7ae0              LDRB     r0,[r4,#0xb]
00004a  7b21              LDRB     r1,[r4,#0xc]
00004c  eb002001          ADD      r0,r0,r1,LSL #8
000050  9003              STR      r0,[sp,#0xc]
;;;1291   		apiSysParSetBalanceDhg(&ProtectPar);
000052  4668              MOV      r0,sp
000054  f7fffffe          BL       apiSysParSetBalanceDhg
                  |L3.88|
;;;1292   		
;;;1293   		appSerialCanDavinciParDebugMsg("Write Balance Dhg");
;;;1294   	}
;;;1295   	else
;;;1296   		return;
;;;1297   	appSerialCanDavinciPutPkgToCanFifo(&CanPkg);	
000058  a804              ADD      r0,sp,#0x10
00005a  f7fffffe          BL       appSerialCanDavinciPutPkgToCanFifo
                  |L3.94|
;;;1298   }
00005e  b008              ADD      sp,sp,#0x20
000060  bd10              POP      {r4,pc}
                  |L3.98|
000062  f7fffffe          BL       appProjectGetScuId
000066  4916              LDR      r1,|L3.192|
000068  ea414080          ORR      r0,r1,r0,LSL #18      ;1265
00006c  9004              STR      r0,[sp,#0x10]         ;1265
00006e  2008              MOVS     r0,#8                 ;1268
000070  f88d0014          STRB     r0,[sp,#0x14]         ;1268
000074  4668              MOV      r0,sp                 ;1269
000076  f7fffffe          BL       apiSysParGetBalanceDhg
00007a  f89d0000          LDRB     r0,[sp,#0]            ;1270
00007e  f88d0015          STRB     r0,[sp,#0x15]         ;1270
000082  f89d0001          LDRB     r0,[sp,#1]            ;1271
000086  f88d0016          STRB     r0,[sp,#0x16]         ;1271
00008a  f89d0004          LDRB     r0,[sp,#4]            ;1272
00008e  f88d0017          STRB     r0,[sp,#0x17]         ;1272
000092  f89d0005          LDRB     r0,[sp,#5]            ;1273
000096  f88d0018          STRB     r0,[sp,#0x18]         ;1273
00009a  f89d0008          LDRB     r0,[sp,#8]            ;1274
00009e  f88d0019          STRB     r0,[sp,#0x19]         ;1274
0000a2  f89d0009          LDRB     r0,[sp,#9]            ;1275
0000a6  f88d001a          STRB     r0,[sp,#0x1a]         ;1275
0000aa  f89d000c          LDRB     r0,[sp,#0xc]          ;1276
0000ae  f88d001b          STRB     r0,[sp,#0x1b]         ;1276
0000b2  f89d000d          LDRB     r0,[sp,#0xd]          ;1277
0000b6  f88d001c          STRB     r0,[sp,#0x1c]         ;1277
0000ba  e7cd              B        |L3.88|
;;;1299   static void DavinciCanParameterBalanceRlx(smp_can_package_t *pCanPkg)
                          ENDP

                  |L3.188|
                          DCD      0x06000082
                  |L3.192|
                          DCD      0x06000482

                          AREA ||i.DavinciCanParameterBalanceDuty||, CODE, READONLY, ALIGN=2

                  DavinciCanParameterBalanceDuty PROC
;;;1173   
;;;1174   static void DavinciCanParameterBalanceDuty(smp_can_package_t *pCanPkg)
000000  b510              PUSH     {r4,lr}
;;;1175   {
000002  b088              SUB      sp,sp,#0x20
000004  4604              MOV      r4,r0
;;;1176   	tLbyte	Lbyte;
;;;1177   	smp_can_package_t	CanPkg;
;;;1178   	tScuProtectPar		ProtectPar;
;;;1179   	
;;;1180   	if(SMP_CAN_GET_OBJ_INDEX(pCanPkg->id) == SMP_CMD_PAR_RD_OBJ_INDEX)
000006  6820              LDR      r0,[r4,#0]
000008  f3c02087          UBFX     r0,r0,#10,#8
00000c  2801              CMP      r0,#1
00000e  d01c              BEQ      |L4.74|
;;;1181   	{
;;;1182   		appSerialCanDavinciParDebugMsg("Read Balance Duty");
;;;1183   		CanPkg.id = MAKE_SMP_CAN_ID(SMP_CAN_FUN_CMD_TX, canParScuId(),
;;;1184   									SMP_CMD_PAR_RD_OBJ_INDEX,
;;;1185   									SMP_PAR_ID_BALANCE_DUTY);
;;;1186   		CanPkg.dlc = 4;
;;;1187   		apiSysParGetBalanceDuty(&ProtectPar);
;;;1188   		CanPkg.dat[0] = ProtectPar.SetValue.b[0];
;;;1189   		CanPkg.dat[1] = ProtectPar.STime.b[0];
;;;1190   		CanPkg.dat[2] = ProtectPar.RelValue.b[0];
;;;1191   		CanPkg.dat[3] = ProtectPar.RTime.b[0];
;;;1192   	}
;;;1193   	else if(isParWritable())
000010  f7fffffe          BL       isParWritable
000014  2800              CMP      r0,#0
000016  d016              BEQ      |L4.70|
;;;1194   	{
;;;1195   		CanPkg.id = MAKE_SMP_CAN_ID(SMP_CAN_FUN_CMD_TX, canParScuId(),
000018  f7fffffe          BL       appProjectGetScuId
00001c  4919              LDR      r1,|L4.132|
00001e  ea414080          ORR      r0,r1,r0,LSL #18
000022  9004              STR      r0,[sp,#0x10]
;;;1196   									SMP_CMD_PAR_WR_OBJ_INDEX,
;;;1197   									SMP_PAR_ID_BALANCE_DUTY);
;;;1198   
;;;1199   		CanPkg.dlc = 0;
000024  2000              MOVS     r0,#0
000026  f88d0014          STRB     r0,[sp,#0x14]
;;;1200   		
;;;1201   		ProtectPar.SetValue.l = pCanPkg->dat[0];
00002a  7960              LDRB     r0,[r4,#5]
00002c  9000              STR      r0,[sp,#0]
;;;1202   		ProtectPar.STime.l = pCanPkg->dat[1];
00002e  79a0              LDRB     r0,[r4,#6]
000030  9001              STR      r0,[sp,#4]
;;;1203   		ProtectPar.RelValue.l = pCanPkg->dat[2];
000032  79e0              LDRB     r0,[r4,#7]
000034  9002              STR      r0,[sp,#8]
;;;1204   		ProtectPar.RTime.l = pCanPkg->dat[3];
000036  7a20              LDRB     r0,[r4,#8]
000038  9003              STR      r0,[sp,#0xc]
;;;1205   		apiSysParSetBalanceDuty(&ProtectPar);
00003a  4668              MOV      r0,sp
00003c  f7fffffe          BL       apiSysParSetBalanceDuty
                  |L4.64|
;;;1206   		
;;;1207   		appSerialCanDavinciParDebugMsg("Write Balance Duty");
;;;1208   	}
;;;1209   	else
;;;1210   		return;
;;;1211   	appSerialCanDavinciPutPkgToCanFifo(&CanPkg);
000040  a804              ADD      r0,sp,#0x10
000042  f7fffffe          BL       appSerialCanDavinciPutPkgToCanFifo
                  |L4.70|
;;;1212   }
000046  b008              ADD      sp,sp,#0x20
000048  bd10              POP      {r4,pc}
                  |L4.74|
00004a  f7fffffe          BL       appProjectGetScuId
00004e  490e              LDR      r1,|L4.136|
000050  ea414080          ORR      r0,r1,r0,LSL #18      ;1183
000054  9004              STR      r0,[sp,#0x10]         ;1183
000056  2004              MOVS     r0,#4                 ;1186
000058  f88d0014          STRB     r0,[sp,#0x14]         ;1186
00005c  4668              MOV      r0,sp                 ;1187
00005e  f7fffffe          BL       apiSysParGetBalanceDuty
000062  f89d0000          LDRB     r0,[sp,#0]            ;1188
000066  f88d0015          STRB     r0,[sp,#0x15]         ;1188
00006a  f89d0004          LDRB     r0,[sp,#4]            ;1189
00006e  f88d0016          STRB     r0,[sp,#0x16]         ;1189
000072  f89d0008          LDRB     r0,[sp,#8]            ;1190
000076  f88d0017          STRB     r0,[sp,#0x17]         ;1190
00007a  f89d000c          LDRB     r0,[sp,#0xc]          ;1191
00007e  f88d0018          STRB     r0,[sp,#0x18]         ;1191
000082  e7dd              B        |L4.64|
;;;1213   
                          ENDP

                  |L4.132|
                          DCD      0x06000080
                  |L4.136|
                          DCD      0x06000480

                          AREA ||i.DavinciCanParameterBalanceRlx||, CODE, READONLY, ALIGN=2

                  DavinciCanParameterBalanceRlx PROC
;;;1298   }
;;;1299   static void DavinciCanParameterBalanceRlx(smp_can_package_t *pCanPkg)
000000  b510              PUSH     {r4,lr}
;;;1300   {
000002  b088              SUB      sp,sp,#0x20
000004  4604              MOV      r4,r0
;;;1301   	smp_can_package_t	CanPkg;
;;;1302   	tScuProtectPar		ProtectPar;
;;;1303   	
;;;1304   	if(SMP_CAN_GET_OBJ_INDEX(pCanPkg->id) == SMP_CMD_PAR_RD_OBJ_INDEX)
000006  6820              LDR      r0,[r4,#0]
000008  f3c02087          UBFX     r0,r0,#10,#8
00000c  2801              CMP      r0,#1
00000e  d028              BEQ      |L5.98|
;;;1305   	{
;;;1306   		appSerialCanDavinciParDebugMsg("Read Balance Rlx");
;;;1307   		CanPkg.id = MAKE_SMP_CAN_ID(SMP_CAN_FUN_CMD_TX, canParScuId(),
;;;1308   									SMP_CMD_PAR_RD_OBJ_INDEX,
;;;1309   									SMP_PAR_ID_BALANCE_RLX);
;;;1310   		CanPkg.dlc = 8;
;;;1311   		apiSysParGetBalanceRlx(&ProtectPar);
;;;1312   		CanPkg.dat[0] = ProtectPar.SetValue.b[0];
;;;1313   		CanPkg.dat[1] = ProtectPar.SetValue.b[1];
;;;1314   		CanPkg.dat[2] = ProtectPar.STime.b[0];
;;;1315   		CanPkg.dat[3] = ProtectPar.STime.b[1];
;;;1316   		CanPkg.dat[4] = ProtectPar.RelValue.b[0];
;;;1317   		CanPkg.dat[5] = ProtectPar.RelValue.b[1];
;;;1318   		CanPkg.dat[6] = ProtectPar.RTime.b[0];
;;;1319   		CanPkg.dat[7] = ProtectPar.RTime.b[1];
;;;1320   	}
;;;1321   	else if(isParWritable())
000010  f7fffffe          BL       isParWritable
000014  2800              CMP      r0,#0
000016  d022              BEQ      |L5.94|
;;;1322   	{
;;;1323   		CanPkg.id = MAKE_SMP_CAN_ID(SMP_CAN_FUN_CMD_TX, canParScuId(),
000018  f7fffffe          BL       appProjectGetScuId
00001c  4927              LDR      r1,|L5.188|
00001e  ea414080          ORR      r0,r1,r0,LSL #18
000022  9004              STR      r0,[sp,#0x10]
;;;1324   									SMP_CMD_PAR_WR_OBJ_INDEX,
;;;1325   									SMP_PAR_ID_BALANCE_RLX);
;;;1326   
;;;1327   		CanPkg.dlc = 0;
000024  2000              MOVS     r0,#0
000026  f88d0014          STRB     r0,[sp,#0x14]
;;;1328   		
;;;1329   		ProtectPar.SetValue.l = GET_WORD(&pCanPkg->dat[0]);
00002a  7960              LDRB     r0,[r4,#5]
00002c  79a1              LDRB     r1,[r4,#6]
00002e  eb002001          ADD      r0,r0,r1,LSL #8
000032  9000              STR      r0,[sp,#0]
;;;1330   		ProtectPar.STime.l = GET_WORD(&pCanPkg->dat[2]);
000034  79e0              LDRB     r0,[r4,#7]
000036  7a21              LDRB     r1,[r4,#8]
000038  eb002001          ADD      r0,r0,r1,LSL #8
00003c  9001              STR      r0,[sp,#4]
;;;1331   		ProtectPar.RelValue.l = GET_WORD(&pCanPkg->dat[4]);
00003e  7a60              LDRB     r0,[r4,#9]
000040  7aa1              LDRB     r1,[r4,#0xa]
000042  eb002001          ADD      r0,r0,r1,LSL #8
000046  9002              STR      r0,[sp,#8]
;;;1332   		ProtectPar.RTime.l = GET_WORD(&pCanPkg->dat[6]);
000048  7ae0              LDRB     r0,[r4,#0xb]
00004a  7b21              LDRB     r1,[r4,#0xc]
00004c  eb002001          ADD      r0,r0,r1,LSL #8
000050  9003              STR      r0,[sp,#0xc]
;;;1333   		apiSysParSetBalanceRlx(&ProtectPar);
000052  4668              MOV      r0,sp
000054  f7fffffe          BL       apiSysParSetBalanceRlx
                  |L5.88|
;;;1334   		
;;;1335   		appSerialCanDavinciParDebugMsg("Write Balance Rlx");
;;;1336   	}
;;;1337   	else
;;;1338   		return;
;;;1339   	appSerialCanDavinciPutPkgToCanFifo(&CanPkg);
000058  a804              ADD      r0,sp,#0x10
00005a  f7fffffe          BL       appSerialCanDavinciPutPkgToCanFifo
                  |L5.94|
;;;1340   }
00005e  b008              ADD      sp,sp,#0x20
000060  bd10              POP      {r4,pc}
                  |L5.98|
000062  f7fffffe          BL       appProjectGetScuId
000066  4916              LDR      r1,|L5.192|
000068  ea414080          ORR      r0,r1,r0,LSL #18      ;1307
00006c  9004              STR      r0,[sp,#0x10]         ;1307
00006e  2008              MOVS     r0,#8                 ;1310
000070  f88d0014          STRB     r0,[sp,#0x14]         ;1310
000074  4668              MOV      r0,sp                 ;1311
000076  f7fffffe          BL       apiSysParGetBalanceRlx
00007a  f89d0000          LDRB     r0,[sp,#0]            ;1312
00007e  f88d0015          STRB     r0,[sp,#0x15]         ;1312
000082  f89d0001          LDRB     r0,[sp,#1]            ;1313
000086  f88d0016          STRB     r0,[sp,#0x16]         ;1313
00008a  f89d0004          LDRB     r0,[sp,#4]            ;1314
00008e  f88d0017          STRB     r0,[sp,#0x17]         ;1314
000092  f89d0005          LDRB     r0,[sp,#5]            ;1315
000096  f88d0018          STRB     r0,[sp,#0x18]         ;1315
00009a  f89d0008          LDRB     r0,[sp,#8]            ;1316
00009e  f88d0019          STRB     r0,[sp,#0x19]         ;1316
0000a2  f89d0009          LDRB     r0,[sp,#9]            ;1317
0000a6  f88d001a          STRB     r0,[sp,#0x1a]         ;1317
0000aa  f89d000c          LDRB     r0,[sp,#0xc]          ;1318
0000ae  f88d001b          STRB     r0,[sp,#0x1b]         ;1318
0000b2  f89d000d          LDRB     r0,[sp,#0xd]          ;1319
0000b6  f88d001c          STRB     r0,[sp,#0x1c]         ;1319
0000ba  e7cd              B        |L5.88|
;;;1341   
                          ENDP

                  |L5.188|
                          DCD      0x06000083
                  |L5.192|
                          DCD      0x06000483

                          AREA ||i.DavinciCanParameterCocp||, CODE, READONLY, ALIGN=2

                  DavinciCanParameterCocp PROC
;;;964    
;;;965    static void DavinciCanParameterCocp(smp_can_package_t *pCanPkg)
000000  b510              PUSH     {r4,lr}
;;;966    {
000002  b088              SUB      sp,sp,#0x20
000004  4604              MOV      r4,r0
;;;967    	smp_can_package_t	CanPkg;
;;;968    	tScuProtectPar		ProtectPar;
;;;969    
;;;970    	if(SMP_CAN_GET_OBJ_INDEX(pCanPkg->id) == SMP_CMD_PAR_RD_OBJ_INDEX)
000006  6820              LDR      r0,[r4,#0]
000008  f3c02087          UBFX     r0,r0,#10,#8
00000c  2801              CMP      r0,#1
00000e  d023              BEQ      |L6.88|
;;;971    	{
;;;972    		CanPkg.id = MAKE_SMP_CAN_ID(SMP_CAN_FUN_CMD_TX, canParScuId(),
;;;973    									SMP_CMD_PAR_RD_OBJ_INDEX,
;;;974    									SMP_PAR_ID_COCP_PROTECT);
;;;975    				
;;;976    		CanPkg.dlc = 7;
;;;977    		CanPkg.dat[0] = pCanPkg->dat[0];		
;;;978    		apiSysParGetCocpPar(pCanPkg->dat[0], &ProtectPar);
;;;979    		CanPkg.dat[1] = ProtectPar.SetValue.b[0];
;;;980    		CanPkg.dat[2] = ProtectPar.SetValue.b[1];
;;;981    		CanPkg.dat[3] = ProtectPar.STime.b[0];
;;;982    		CanPkg.dat[4] = ProtectPar.RelValue.b[0];
;;;983    		CanPkg.dat[5] = ProtectPar.RelValue.b[1];
;;;984    		CanPkg.dat[6] = ProtectPar.RTime.b[0];
;;;985    
;;;986    		appSerialCanDavinciParDebugMsg("Read Cocp");
;;;987    	}
;;;988    	else if(isParWritable())
000010  f7fffffe          BL       isParWritable
000014  2800              CMP      r0,#0
000016  d01d              BEQ      |L6.84|
;;;989    	{
;;;990    		CanPkg.id = MAKE_SMP_CAN_ID(SMP_CAN_FUN_CMD_TX, canParScuId(),
000018  f7fffffe          BL       appProjectGetScuId
00001c  4923              LDR      r1,|L6.172|
00001e  ea414080          ORR      r0,r1,r0,LSL #18
000022  9004              STR      r0,[sp,#0x10]
;;;991    									SMP_CMD_PAR_WR_OBJ_INDEX,
;;;992    									SMP_PAR_ID_COCP_PROTECT);
;;;993    		CanPkg.dlc = 0;
000024  2000              MOVS     r0,#0
000026  f88d0014          STRB     r0,[sp,#0x14]
;;;994    		ProtectPar.SetValue.l = GET_WORD(&pCanPkg->dat[1]);
00002a  79a0              LDRB     r0,[r4,#6]
00002c  79e1              LDRB     r1,[r4,#7]
00002e  eb002001          ADD      r0,r0,r1,LSL #8
000032  9000              STR      r0,[sp,#0]
;;;995    		ProtectPar.STime.l = pCanPkg->dat[3];
000034  7a20              LDRB     r0,[r4,#8]
000036  9001              STR      r0,[sp,#4]
;;;996    		ProtectPar.RelValue.l = GET_WORD(&pCanPkg->dat[4]);
000038  7a60              LDRB     r0,[r4,#9]
00003a  7aa1              LDRB     r1,[r4,#0xa]
00003c  eb002001          ADD      r0,r0,r1,LSL #8
000040  9002              STR      r0,[sp,#8]
;;;997    		ProtectPar.RTime.l = pCanPkg->dat[6];
000042  7ae0              LDRB     r0,[r4,#0xb]
000044  9003              STR      r0,[sp,#0xc]
;;;998    
;;;999    		apiSysParSetCocpPar(pCanPkg->dat[0], &ProtectPar);
000046  7960              LDRB     r0,[r4,#5]
000048  4669              MOV      r1,sp
00004a  f7fffffe          BL       apiSysParSetCocpPar
                  |L6.78|
;;;1000   		appSerialCanDavinciParDebugMsg("Write Cocp");
;;;1001   	}
;;;1002   	else
;;;1003   		return;
;;;1004   	appSerialCanDavinciPutPkgToCanFifo(&CanPkg);	
00004e  a804              ADD      r0,sp,#0x10
000050  f7fffffe          BL       appSerialCanDavinciPutPkgToCanFifo
                  |L6.84|
;;;1005   }
000054  b008              ADD      sp,sp,#0x20
000056  bd10              POP      {r4,pc}
                  |L6.88|
000058  f7fffffe          BL       appProjectGetScuId
00005c  4914              LDR      r1,|L6.176|
00005e  ea414080          ORR      r0,r1,r0,LSL #18      ;972
000062  9004              STR      r0,[sp,#0x10]         ;972
000064  2007              MOVS     r0,#7                 ;976
000066  f88d0014          STRB     r0,[sp,#0x14]         ;976
00006a  7960              LDRB     r0,[r4,#5]            ;977
00006c  f88d0015          STRB     r0,[sp,#0x15]         ;977
000070  7960              LDRB     r0,[r4,#5]            ;978
000072  4669              MOV      r1,sp                 ;978
000074  f7fffffe          BL       apiSysParGetCocpPar
000078  f89d0000          LDRB     r0,[sp,#0]            ;979
00007c  f88d0016          STRB     r0,[sp,#0x16]         ;979
000080  f89d0001          LDRB     r0,[sp,#1]            ;980
000084  f88d0017          STRB     r0,[sp,#0x17]         ;980
000088  f89d0004          LDRB     r0,[sp,#4]            ;981
00008c  f88d0018          STRB     r0,[sp,#0x18]         ;981
000090  f89d0008          LDRB     r0,[sp,#8]            ;982
000094  f88d0019          STRB     r0,[sp,#0x19]         ;982
000098  f89d0009          LDRB     r0,[sp,#9]            ;983
00009c  f88d001a          STRB     r0,[sp,#0x1a]         ;983
0000a0  f89d000c          LDRB     r0,[sp,#0xc]          ;984
0000a4  f88d001b          STRB     r0,[sp,#0x1b]         ;984
0000a8  e7d1              B        |L6.78|
;;;1006   
                          ENDP

0000aa  0000              DCW      0x0000
                  |L6.172|
                          DCD      0x06000068
                  |L6.176|
                          DCD      0x06000468

                          AREA ||i.DavinciCanParameterCotp||, CODE, READONLY, ALIGN=2

                  DavinciCanParameterCotp PROC
;;;764    }
;;;765    static void DavinciCanParameterCotp(smp_can_package_t *pCanPkg)
000000  b510              PUSH     {r4,lr}
;;;766    {
000002  b088              SUB      sp,sp,#0x20
000004  4604              MOV      r4,r0
;;;767    	smp_can_package_t	CanPkg;
;;;768    	tScuProtectPar		ProtectPar;
;;;769    
;;;770    	if(SMP_CAN_GET_OBJ_INDEX(pCanPkg->id) == SMP_CMD_PAR_RD_OBJ_INDEX)
000006  6820              LDR      r0,[r4,#0]
000008  f3c02087          UBFX     r0,r0,#10,#8
00000c  2801              CMP      r0,#1
00000e  d01d              BEQ      |L7.76|
;;;771    	{
;;;772    		CanPkg.id = MAKE_SMP_CAN_ID(SMP_CAN_FUN_CMD_TX, canParScuId(),
;;;773    									SMP_CMD_PAR_RD_OBJ_INDEX,
;;;774    									SMP_PAR_ID_COTP_PROTECT);
;;;775    				
;;;776    		CanPkg.dlc = 5;
;;;777    		CanPkg.dat[0] = pCanPkg->dat[0];		
;;;778    		apiSysParGetCotpPar(pCanPkg->dat[0], &ProtectPar);
;;;779    		CanPkg.dat[1] = ProtectPar.SetValue.b[0];
;;;780    		CanPkg.dat[2] = ProtectPar.STime.b[0];
;;;781    		CanPkg.dat[3] = ProtectPar.RelValue.b[0];
;;;782    		CanPkg.dat[4] = ProtectPar.RTime.b[0];
;;;783    
;;;784    		appSerialCanDavinciParDebugMsg("Read Cotp");
;;;785    	}
;;;786    	else if(isParWritable())
000010  f7fffffe          BL       isParWritable
000014  2800              CMP      r0,#0
000016  d017              BEQ      |L7.72|
;;;787    	{
;;;788    		CanPkg.id = MAKE_SMP_CAN_ID(SMP_CAN_FUN_CMD_TX, canParScuId(),
000018  f7fffffe          BL       appProjectGetScuId
00001c  491c              LDR      r1,|L7.144|
00001e  ea414080          ORR      r0,r1,r0,LSL #18
000022  9004              STR      r0,[sp,#0x10]
;;;789    									SMP_CMD_PAR_WR_OBJ_INDEX,
;;;790    									SMP_PAR_ID_COTP_PROTECT);
;;;791    		CanPkg.dlc = 0;
000024  2000              MOVS     r0,#0
000026  f88d0014          STRB     r0,[sp,#0x14]
;;;792    		ProtectPar.SetValue.l = pCanPkg->dat[1];
00002a  79a0              LDRB     r0,[r4,#6]
00002c  9000              STR      r0,[sp,#0]
;;;793    		ProtectPar.STime.l = pCanPkg->dat[2];
00002e  79e0              LDRB     r0,[r4,#7]
000030  9001              STR      r0,[sp,#4]
;;;794    		ProtectPar.RelValue.l = pCanPkg->dat[3];
000032  7a20              LDRB     r0,[r4,#8]
000034  9002              STR      r0,[sp,#8]
;;;795    		ProtectPar.RTime.l = pCanPkg->dat[4];
000036  7a60              LDRB     r0,[r4,#9]
000038  9003              STR      r0,[sp,#0xc]
;;;796    
;;;797    		apiSysParSetCotpPar(pCanPkg->dat[0], &ProtectPar);
00003a  7960              LDRB     r0,[r4,#5]
00003c  4669              MOV      r1,sp
00003e  f7fffffe          BL       apiSysParSetCotpPar
                  |L7.66|
;;;798    		appSerialCanDavinciParDebugMsg("Write Cotp");
;;;799    	}
;;;800    	else
;;;801    		return;
;;;802    	appSerialCanDavinciPutPkgToCanFifo(&CanPkg);
000042  a804              ADD      r0,sp,#0x10
000044  f7fffffe          BL       appSerialCanDavinciPutPkgToCanFifo
                  |L7.72|
;;;803    }
000048  b008              ADD      sp,sp,#0x20
00004a  bd10              POP      {r4,pc}
                  |L7.76|
00004c  f7fffffe          BL       appProjectGetScuId
000050  4910              LDR      r1,|L7.148|
000052  ea414080          ORR      r0,r1,r0,LSL #18      ;772
000056  9004              STR      r0,[sp,#0x10]         ;772
000058  2005              MOVS     r0,#5                 ;776
00005a  f88d0014          STRB     r0,[sp,#0x14]         ;776
00005e  7960              LDRB     r0,[r4,#5]            ;777
000060  f88d0015          STRB     r0,[sp,#0x15]         ;777
000064  7960              LDRB     r0,[r4,#5]            ;778
000066  4669              MOV      r1,sp                 ;778
000068  f7fffffe          BL       apiSysParGetCotpPar
00006c  f89d0000          LDRB     r0,[sp,#0]            ;779
000070  f88d0016          STRB     r0,[sp,#0x16]         ;779
000074  f89d0004          LDRB     r0,[sp,#4]            ;780
000078  f88d0017          STRB     r0,[sp,#0x17]         ;780
00007c  f89d0008          LDRB     r0,[sp,#8]            ;781
000080  f88d0018          STRB     r0,[sp,#0x18]         ;781
000084  f89d000c          LDRB     r0,[sp,#0xc]          ;782
000088  f88d0019          STRB     r0,[sp,#0x19]         ;782
00008c  e7d9              B        |L7.66|
;;;804    static void DavinciCanParameterCutp(smp_can_package_t *pCanPkg)
                          ENDP

00008e  0000              DCW      0x0000
                  |L7.144|
                          DCD      0x06000062
                  |L7.148|
                          DCD      0x06000462

                          AREA ||i.DavinciCanParameterCurrentCalibration||, CODE, READONLY, ALIGN=2

                          REQUIRE _printf_percent
                          REQUIRE _printf_d
                          REQUIRE _printf_int_dec
                  DavinciCanParameterCurrentCalibration PROC
;;;1427   
;;;1428   static void DavinciCanParameterCurrentCalibration(smp_can_package_t *pCanPkg)
000000  b510              PUSH     {r4,lr}
;;;1429   {
000002  b0a0              SUB      sp,sp,#0x80
000004  4604              MOV      r4,r0
;;;1430   	uint8_t			cansendbf[8];
;;;1431   	smp_can_package_t	CanPkg;
;;;1432   	tLbyte			Value;
;;;1433   	tLbyte			Adc;
;;;1434   	char			str[100];
;;;1435   
;;;1436   	if(SMP_CAN_GET_OBJ_INDEX(pCanPkg->id) == SMP_CMD_PAR_RD_OBJ_INDEX)
000006  6820              LDR      r0,[r4,#0]
000008  f3c02087          UBFX     r0,r0,#10,#8
00000c  2801              CMP      r0,#1
00000e  d027              BEQ      |L8.96|
;;;1437   	{
;;;1438   		CanPkg.id = MAKE_SMP_CAN_ID(SMP_CAN_FUN_CMD_TX, canParScuId(),
;;;1439   									SMP_CMD_PAR_RD_OBJ_INDEX,
;;;1440   									SMP_PAR_ID_CALIB_CURR);
;;;1441   		CanPkg.dlc = 8;
;;;1442   		apiCaliParGetCurrentValue(pCanPkg->dat[0], pCanPkg->dat[1],
;;;1443   									&Value.sl, &Adc.sl);
;;;1444   		CanPkg.dat[0] = pCanPkg->dat[0];	//current index
;;;1445   		CanPkg.dat[1] = pCanPkg->dat[1];	//point 0 or 1
;;;1446   		CanPkg.dat[2] = Value.b[0];	
;;;1447   		CanPkg.dat[3] = Value.b[1];
;;;1448   		CanPkg.dat[4] = Value.b[2];
;;;1449   		CanPkg.dat[5] = Adc.b[0];
;;;1450   		CanPkg.dat[6] = Adc.b[1];
;;;1451   		CanPkg.dat[7] = Adc.b[2];	
;;;1452   
;;;1453   		appSerialCanDavinciParDebugMsg("Read Curr Cali");
;;;1454   	}
;;;1455   	else if(isParWritable())
000010  f7fffffe          BL       isParWritable
000014  2800              CMP      r0,#0
000016  d021              BEQ      |L8.92|
;;;1456   	{
;;;1457   		CanPkg.id = MAKE_SMP_CAN_ID(SMP_CAN_FUN_CMD_TX, canParScuId(),
000018  f7fffffe          BL       appProjectGetScuId
00001c  4927              LDR      r1,|L8.188|
00001e  ea414080          ORR      r0,r1,r0,LSL #18
000022  901c              STR      r0,[sp,#0x70]
;;;1458   									SMP_CMD_PAR_WR_OBJ_INDEX,
;;;1459   									SMP_PAR_ID_CALIB_CURR);
;;;1460   		CanPkg.dlc = 0;
000024  2000              MOVS     r0,#0
000026  f88d0074          STRB     r0,[sp,#0x74]
;;;1461   
;;;1462   		Value.sl = Get3BytesInt32(&pCanPkg->dat[2]);
00002a  1de0              ADDS     r0,r4,#7
00002c  f7fffffe          BL       Get3BytesInt32
000030  901b              STR      r0,[sp,#0x6c]
;;;1463   		Adc.sl = Get3BytesInt32(&pCanPkg->dat[5]);
000032  f104000a          ADD      r0,r4,#0xa
000036  f7fffffe          BL       Get3BytesInt32
00003a  901a              STR      r0,[sp,#0x68]
;;;1464   		apiCaliParSetCurrentValue(pCanPkg->dat[0], pCanPkg->dat[1],
00003c  79a1              LDRB     r1,[r4,#6]
00003e  7964              LDRB     r4,[r4,#5]
000040  4603              MOV      r3,r0
000042  4620              MOV      r0,r4
000044  9a1b              LDR      r2,[sp,#0x6c]
000046  f7fffffe          BL       apiCaliParSetCurrentValue
;;;1465   									Value.sl, Adc.sl);
;;;1466   									
;;;1467   		sprintf(str,"Wr Curr %d %d",Value.sl, Adc.sl);
00004a  e9dd321a          LDRD     r3,r2,[sp,#0x68]
00004e  a11c              ADR      r1,|L8.192|
000050  a801              ADD      r0,sp,#4
000052  f7fffffe          BL       __2sprintf
                  |L8.86|
;;;1468   		appSerialCanDavinciParDebugMsg(str);//"Write Curr Cali");
;;;1469   	}
;;;1470   	else
;;;1471   		return;
;;;1472   	appSerialCanDavinciPutPkgToCanFifo(&CanPkg);
000056  a81c              ADD      r0,sp,#0x70
000058  f7fffffe          BL       appSerialCanDavinciPutPkgToCanFifo
                  |L8.92|
;;;1473   }
00005c  b020              ADD      sp,sp,#0x80
00005e  bd10              POP      {r4,pc}
                  |L8.96|
000060  f7fffffe          BL       appProjectGetScuId
000064  491a              LDR      r1,|L8.208|
000066  ea414080          ORR      r0,r1,r0,LSL #18      ;1438
00006a  901c              STR      r0,[sp,#0x70]         ;1438
00006c  2008              MOVS     r0,#8                 ;1441
00006e  f88d0074          STRB     r0,[sp,#0x74]         ;1441
000072  79a1              LDRB     r1,[r4,#6]            ;1442
000074  7960              LDRB     r0,[r4,#5]            ;1442
000076  ab1a              ADD      r3,sp,#0x68           ;1442
000078  aa1b              ADD      r2,sp,#0x6c           ;1442
00007a  f7fffffe          BL       apiCaliParGetCurrentValue
00007e  7960              LDRB     r0,[r4,#5]            ;1444
000080  f88d0075          STRB     r0,[sp,#0x75]         ;1444
000084  79a0              LDRB     r0,[r4,#6]            ;1445
000086  f88d0076          STRB     r0,[sp,#0x76]         ;1445
00008a  f89d006c          LDRB     r0,[sp,#0x6c]         ;1446
00008e  f88d0077          STRB     r0,[sp,#0x77]         ;1446
000092  f89d006d          LDRB     r0,[sp,#0x6d]         ;1447
000096  f88d0078          STRB     r0,[sp,#0x78]         ;1447
00009a  f89d006e          LDRB     r0,[sp,#0x6e]         ;1448
00009e  f88d0079          STRB     r0,[sp,#0x79]         ;1448
0000a2  f89d0068          LDRB     r0,[sp,#0x68]         ;1449
0000a6  f88d007a          STRB     r0,[sp,#0x7a]         ;1449
0000aa  f89d0069          LDRB     r0,[sp,#0x69]         ;1450
0000ae  f88d007b          STRB     r0,[sp,#0x7b]         ;1450
0000b2  f89d006a          LDRB     r0,[sp,#0x6a]         ;1451
0000b6  f88d007c          STRB     r0,[sp,#0x7c]         ;1451
0000ba  e7cc              B        |L8.86|
;;;1474   static void DavinciCanParameterVBatCalibration(smp_can_package_t *pCanPkg)
                          ENDP

                  |L8.188|
                          DCD      0x06000092
                  |L8.192|
0000c0  57722043          DCB      "Wr Curr %d %d",0
0000c4  75727220
0000c8  25642025
0000cc  6400    
0000ce  00                DCB      0
0000cf  00                DCB      0
                  |L8.208|
                          DCD      0x06000492

                          AREA ||i.DavinciCanParameterCutp||, CODE, READONLY, ALIGN=2

                  DavinciCanParameterCutp PROC
;;;803    }
;;;804    static void DavinciCanParameterCutp(smp_can_package_t *pCanPkg)
000000  b510              PUSH     {r4,lr}
;;;805    {
000002  b088              SUB      sp,sp,#0x20
000004  4604              MOV      r4,r0
;;;806    	smp_can_package_t	CanPkg;
;;;807    	tScuProtectPar		ProtectPar;
;;;808    
;;;809    	if(SMP_CAN_GET_OBJ_INDEX(pCanPkg->id) == SMP_CMD_PAR_RD_OBJ_INDEX)
000006  6820              LDR      r0,[r4,#0]
000008  f3c02087          UBFX     r0,r0,#10,#8
00000c  2801              CMP      r0,#1
00000e  d01d              BEQ      |L9.76|
;;;810    	{
;;;811    		CanPkg.id = MAKE_SMP_CAN_ID(SMP_CAN_FUN_CMD_TX, canParScuId(),
;;;812    									SMP_CMD_PAR_RD_OBJ_INDEX,
;;;813    									SMP_PAR_ID_CUTP_PROTECT);
;;;814    				
;;;815    		CanPkg.dlc = 5;
;;;816    		CanPkg.dat[0] = pCanPkg->dat[0];		
;;;817    		apiSysParGetCutpPar(pCanPkg->dat[0], &ProtectPar);
;;;818    		CanPkg.dat[1] = ProtectPar.SetValue.b[0];
;;;819    		CanPkg.dat[2] = ProtectPar.STime.b[0];
;;;820    		CanPkg.dat[3] = ProtectPar.RelValue.b[0];
;;;821    		CanPkg.dat[4] = ProtectPar.RTime.b[0];
;;;822    
;;;823    		appSerialCanDavinciParDebugMsg("Read Cutp");
;;;824    	}
;;;825    	else if(isParWritable())
000010  f7fffffe          BL       isParWritable
000014  2800              CMP      r0,#0
000016  d017              BEQ      |L9.72|
;;;826    	{
;;;827    		CanPkg.id = MAKE_SMP_CAN_ID(SMP_CAN_FUN_CMD_TX, canParScuId(),
000018  f7fffffe          BL       appProjectGetScuId
00001c  491c              LDR      r1,|L9.144|
00001e  ea414080          ORR      r0,r1,r0,LSL #18
000022  9004              STR      r0,[sp,#0x10]
;;;828    									SMP_CMD_PAR_WR_OBJ_INDEX,
;;;829    									SMP_PAR_ID_CUTP_PROTECT);
;;;830    		CanPkg.dlc = 0;
000024  2000              MOVS     r0,#0
000026  f88d0014          STRB     r0,[sp,#0x14]
;;;831    		ProtectPar.SetValue.l = pCanPkg->dat[1];
00002a  79a0              LDRB     r0,[r4,#6]
00002c  9000              STR      r0,[sp,#0]
;;;832    		ProtectPar.STime.l = pCanPkg->dat[2];
00002e  79e0              LDRB     r0,[r4,#7]
000030  9001              STR      r0,[sp,#4]
;;;833    		ProtectPar.RelValue.l = pCanPkg->dat[3];
000032  7a20              LDRB     r0,[r4,#8]
000034  9002              STR      r0,[sp,#8]
;;;834    		ProtectPar.RTime.l = pCanPkg->dat[4];
000036  7a60              LDRB     r0,[r4,#9]
000038  9003              STR      r0,[sp,#0xc]
;;;835    
;;;836    		apiSysParSetCutpPar(pCanPkg->dat[0], &ProtectPar);
00003a  7960              LDRB     r0,[r4,#5]
00003c  4669              MOV      r1,sp
00003e  f7fffffe          BL       apiSysParSetCutpPar
                  |L9.66|
;;;837    		appSerialCanDavinciParDebugMsg("Write Cutp");
;;;838    	}
;;;839    	else
;;;840    		return;
;;;841    	appSerialCanDavinciPutPkgToCanFifo(&CanPkg);
000042  a804              ADD      r0,sp,#0x10
000044  f7fffffe          BL       appSerialCanDavinciPutPkgToCanFifo
                  |L9.72|
;;;842    }
000048  b008              ADD      sp,sp,#0x20
00004a  bd10              POP      {r4,pc}
                  |L9.76|
00004c  f7fffffe          BL       appProjectGetScuId
000050  4910              LDR      r1,|L9.148|
000052  ea414080          ORR      r0,r1,r0,LSL #18      ;811
000056  9004              STR      r0,[sp,#0x10]         ;811
000058  2005              MOVS     r0,#5                 ;815
00005a  f88d0014          STRB     r0,[sp,#0x14]         ;815
00005e  7960              LDRB     r0,[r4,#5]            ;816
000060  f88d0015          STRB     r0,[sp,#0x15]         ;816
000064  7960              LDRB     r0,[r4,#5]            ;817
000066  4669              MOV      r1,sp                 ;817
000068  f7fffffe          BL       apiSysParGetCutpPar
00006c  f89d0000          LDRB     r0,[sp,#0]            ;818
000070  f88d0016          STRB     r0,[sp,#0x16]         ;818
000074  f89d0004          LDRB     r0,[sp,#4]            ;819
000078  f88d0017          STRB     r0,[sp,#0x17]         ;819
00007c  f89d0008          LDRB     r0,[sp,#8]            ;820
000080  f88d0018          STRB     r0,[sp,#0x18]         ;820
000084  f89d000c          LDRB     r0,[sp,#0xc]          ;821
000088  f88d0019          STRB     r0,[sp,#0x19]         ;821
00008c  e7d9              B        |L9.66|
;;;843    
                          ENDP

00008e  0000              DCW      0x0000
                  |L9.144|
                          DCD      0x06000063
                  |L9.148|
                          DCD      0x06000463

                          AREA ||i.DavinciCanParameterDesignedCapacity||, CODE, READONLY, ALIGN=2

                  DavinciCanParameterDesignedCapacity PROC
;;;309                       			
;;;310    static void DavinciCanParameterDesignedCapacity(smp_can_package_t *pCanPkg)
000000  b510              PUSH     {r4,lr}
;;;311    {
000002  b086              SUB      sp,sp,#0x18
000004  4604              MOV      r4,r0
;;;312    	smp_can_package_t	CanPkg;
;;;313    	tLbyte	Lbyte;
;;;314    
;;;315    	if(SMP_CAN_GET_OBJ_INDEX(pCanPkg->id) == SMP_CMD_PAR_RD_OBJ_INDEX)
000006  6820              LDR      r0,[r4,#0]
000008  f3c02087          UBFX     r0,r0,#10,#8
00000c  2801              CMP      r0,#1
00000e  d01e              BEQ      |L10.78|
;;;316    	{
;;;317    		CanPkg.id = MAKE_SMP_CAN_ID(SMP_CAN_FUN_CMD_TX, canParScuId(),
;;;318    									SMP_CMD_PAR_RD_OBJ_INDEX,
;;;319    									SMP_PAR_ID_DESIGNED_CAPACITY);
;;;320    		CanPkg.dlc = 4;
;;;321    		Lbyte.l = apiSysParGetDesignedCapacity();
;;;322    		
;;;323    		CanPkg.dat[0] = Lbyte.b[0];
;;;324    		CanPkg.dat[1] = Lbyte.b[1];
;;;325    		CanPkg.dat[2] = Lbyte.b[2];
;;;326    		CanPkg.dat[3] = Lbyte.b[3];
;;;327    
;;;328    		appSerialCanDavinciParDebugMsg("Read designed capacity");
;;;329    	}
;;;330    	else if(isParWritable())
000010  f7fffffe          BL       isParWritable
000014  2800              CMP      r0,#0
000016  d018              BEQ      |L10.74|
;;;331    	{
;;;332    		CanPkg.id = MAKE_SMP_CAN_ID(SMP_CAN_FUN_CMD_TX, canParScuId(),
000018  f7fffffe          BL       appProjectGetScuId
00001c  491a              LDR      r1,|L10.136|
00001e  ea414080          ORR      r0,r1,r0,LSL #18
000022  9002              STR      r0,[sp,#8]
;;;333    									SMP_CMD_PAR_WR_OBJ_INDEX,
;;;334    									SMP_PAR_ID_DESIGNED_CAPACITY);
;;;335    		CanPkg.dlc = 0;
000024  2000              MOVS     r0,#0
000026  f88d000c          STRB     r0,[sp,#0xc]
;;;336    		Lbyte.l = GET_DWORD(&pCanPkg->dat[0]);
00002a  7960              LDRB     r0,[r4,#5]
00002c  7a21              LDRB     r1,[r4,#8]
00002e  79a2              LDRB     r2,[r4,#6]
000030  eb006001          ADD      r0,r0,r1,LSL #24
000034  79e1              LDRB     r1,[r4,#7]
000036  0409              LSLS     r1,r1,#16
000038  eb012102          ADD      r1,r1,r2,LSL #8
00003c  4408              ADD      r0,r0,r1
00003e  9001              STR      r0,[sp,#4]
;;;337    		apiSysParSetDesignedCapacity(Lbyte.l);
000040  f7fffffe          BL       apiSysParSetDesignedCapacity
                  |L10.68|
;;;338    		appSerialCanDavinciParDebugMsg("write designed capacity");
;;;339    	}
;;;340    	else
;;;341    		return;
;;;342    	appSerialCanDavinciPutPkgToCanFifo(&CanPkg);	
000044  a802              ADD      r0,sp,#8
000046  f7fffffe          BL       appSerialCanDavinciPutPkgToCanFifo
                  |L10.74|
;;;343    }
00004a  b006              ADD      sp,sp,#0x18
00004c  bd10              POP      {r4,pc}
                  |L10.78|
00004e  f7fffffe          BL       appProjectGetScuId
000052  490e              LDR      r1,|L10.140|
000054  ea414080          ORR      r0,r1,r0,LSL #18      ;317
000058  9002              STR      r0,[sp,#8]            ;317
00005a  2004              MOVS     r0,#4                 ;320
00005c  f88d000c          STRB     r0,[sp,#0xc]          ;320
000060  f7fffffe          BL       apiSysParGetDesignedCapacity
000064  9001              STR      r0,[sp,#4]            ;321
000066  f89d0004          LDRB     r0,[sp,#4]            ;323
00006a  f88d000d          STRB     r0,[sp,#0xd]          ;323
00006e  f89d0005          LDRB     r0,[sp,#5]            ;324
000072  f88d000e          STRB     r0,[sp,#0xe]          ;324
000076  f89d0006          LDRB     r0,[sp,#6]            ;325
00007a  f88d000f          STRB     r0,[sp,#0xf]          ;325
00007e  f89d0007          LDRB     r0,[sp,#7]            ;326
000082  f88d0010          STRB     r0,[sp,#0x10]         ;326
000086  e7dd              B        |L10.68|
;;;344                
                          ENDP

                  |L10.136|
                          DCD      0x06000024
                  |L10.140|
                          DCD      0x06000424

                          AREA ||i.DavinciCanParameterDocp||, CODE, READONLY, ALIGN=2

                  DavinciCanParameterDocp PROC
;;;1006   
;;;1007   static void DavinciCanParameterDocp(smp_can_package_t *pCanPkg)
000000  b510              PUSH     {r4,lr}
;;;1008   {
000002  b088              SUB      sp,sp,#0x20
000004  4604              MOV      r4,r0
;;;1009   	smp_can_package_t	CanPkg;
;;;1010   	tScuProtectPar		ProtectPar;
;;;1011   
;;;1012   	if(SMP_CAN_GET_OBJ_INDEX(pCanPkg->id) == SMP_CMD_PAR_RD_OBJ_INDEX)
000006  6820              LDR      r0,[r4,#0]
000008  f3c02087          UBFX     r0,r0,#10,#8
00000c  2801              CMP      r0,#1
00000e  d023              BEQ      |L11.88|
;;;1013   	{
;;;1014   		CanPkg.id = MAKE_SMP_CAN_ID(SMP_CAN_FUN_CMD_TX, canParScuId(),
;;;1015   									SMP_CMD_PAR_RD_OBJ_INDEX,
;;;1016   									SMP_PAR_ID_DOCP_PROTECT);
;;;1017   				
;;;1018   		CanPkg.dlc = 7;
;;;1019   		CanPkg.dat[0] = pCanPkg->dat[0];		
;;;1020   		apiSysParGetDocpPar(pCanPkg->dat[0], &ProtectPar);
;;;1021   		CanPkg.dat[1] = ProtectPar.SetValue.b[0];
;;;1022   		CanPkg.dat[2] = ProtectPar.SetValue.b[1];
;;;1023   		CanPkg.dat[3] = ProtectPar.STime.b[0];
;;;1024   		CanPkg.dat[4] = ProtectPar.RelValue.b[0];
;;;1025   		CanPkg.dat[5] = ProtectPar.RelValue.b[1];
;;;1026   		CanPkg.dat[6] = ProtectPar.RTime.b[0];
;;;1027   
;;;1028   		appSerialCanDavinciParDebugMsg("Read Docp");
;;;1029   	}
;;;1030   	else if(isParWritable())
000010  f7fffffe          BL       isParWritable
000014  2800              CMP      r0,#0
000016  d01d              BEQ      |L11.84|
;;;1031   	{
;;;1032   		CanPkg.id = MAKE_SMP_CAN_ID(SMP_CAN_FUN_CMD_TX, canParScuId(),
000018  f7fffffe          BL       appProjectGetScuId
00001c  4923              LDR      r1,|L11.172|
00001e  ea414080          ORR      r0,r1,r0,LSL #18
000022  9004              STR      r0,[sp,#0x10]
;;;1033   									SMP_CMD_PAR_WR_OBJ_INDEX,
;;;1034   									SMP_PAR_ID_DOCP_PROTECT);
;;;1035   		CanPkg.dlc = 0;
000024  2000              MOVS     r0,#0
000026  f88d0014          STRB     r0,[sp,#0x14]
;;;1036   		ProtectPar.SetValue.l = GET_WORD(&pCanPkg->dat[1]);
00002a  79a0              LDRB     r0,[r4,#6]
00002c  79e1              LDRB     r1,[r4,#7]
00002e  eb002001          ADD      r0,r0,r1,LSL #8
000032  9000              STR      r0,[sp,#0]
;;;1037   		ProtectPar.STime.l = pCanPkg->dat[3];
000034  7a20              LDRB     r0,[r4,#8]
000036  9001              STR      r0,[sp,#4]
;;;1038   		ProtectPar.RelValue.l = GET_WORD(&pCanPkg->dat[4]);
000038  7a60              LDRB     r0,[r4,#9]
00003a  7aa1              LDRB     r1,[r4,#0xa]
00003c  eb002001          ADD      r0,r0,r1,LSL #8
000040  9002              STR      r0,[sp,#8]
;;;1039   		ProtectPar.RTime.l = pCanPkg->dat[6];
000042  7ae0              LDRB     r0,[r4,#0xb]
000044  9003              STR      r0,[sp,#0xc]
;;;1040   
;;;1041   		apiSysParSetDocpPar(pCanPkg->dat[0], &ProtectPar);
000046  7960              LDRB     r0,[r4,#5]
000048  4669              MOV      r1,sp
00004a  f7fffffe          BL       apiSysParSetDocpPar
                  |L11.78|
;;;1042   		appSerialCanDavinciParDebugMsg("Write Docp");
;;;1043   	}
;;;1044   	else
;;;1045   		return;
;;;1046   	appSerialCanDavinciPutPkgToCanFifo(&CanPkg);
00004e  a804              ADD      r0,sp,#0x10
000050  f7fffffe          BL       appSerialCanDavinciPutPkgToCanFifo
                  |L11.84|
;;;1047   }
000054  b008              ADD      sp,sp,#0x20
000056  bd10              POP      {r4,pc}
                  |L11.88|
000058  f7fffffe          BL       appProjectGetScuId
00005c  4914              LDR      r1,|L11.176|
00005e  ea414080          ORR      r0,r1,r0,LSL #18      ;1014
000062  9004              STR      r0,[sp,#0x10]         ;1014
000064  2007              MOVS     r0,#7                 ;1018
000066  f88d0014          STRB     r0,[sp,#0x14]         ;1018
00006a  7960              LDRB     r0,[r4,#5]            ;1019
00006c  f88d0015          STRB     r0,[sp,#0x15]         ;1019
000070  7960              LDRB     r0,[r4,#5]            ;1020
000072  4669              MOV      r1,sp                 ;1020
000074  f7fffffe          BL       apiSysParGetDocpPar
000078  f89d0000          LDRB     r0,[sp,#0]            ;1021
00007c  f88d0016          STRB     r0,[sp,#0x16]         ;1021
000080  f89d0001          LDRB     r0,[sp,#1]            ;1022
000084  f88d0017          STRB     r0,[sp,#0x17]         ;1022
000088  f89d0004          LDRB     r0,[sp,#4]            ;1023
00008c  f88d0018          STRB     r0,[sp,#0x18]         ;1023
000090  f89d0008          LDRB     r0,[sp,#8]            ;1024
000094  f88d0019          STRB     r0,[sp,#0x19]         ;1024
000098  f89d0009          LDRB     r0,[sp,#9]            ;1025
00009c  f88d001a          STRB     r0,[sp,#0x1a]         ;1025
0000a0  f89d000c          LDRB     r0,[sp,#0xc]          ;1026
0000a4  f88d001b          STRB     r0,[sp,#0x1b]         ;1026
0000a8  e7d1              B        |L11.78|
;;;1048   
                          ENDP

0000aa  0000              DCW      0x0000
                  |L11.172|
                          DCD      0x06000067
                  |L11.176|
                          DCD      0x06000467

                          AREA ||i.DavinciCanParameterDotp||, CODE, READONLY, ALIGN=2

                  DavinciCanParameterDotp PROC
;;;843    
;;;844    static void DavinciCanParameterDotp(smp_can_package_t *pCanPkg)
000000  b510              PUSH     {r4,lr}
;;;845    {
000002  b088              SUB      sp,sp,#0x20
000004  4604              MOV      r4,r0
;;;846    	smp_can_package_t	CanPkg;
;;;847    	tScuProtectPar		ProtectPar;
;;;848    
;;;849    	if(SMP_CAN_GET_OBJ_INDEX(pCanPkg->id) == SMP_CMD_PAR_RD_OBJ_INDEX)
000006  6820              LDR      r0,[r4,#0]
000008  f3c02087          UBFX     r0,r0,#10,#8
00000c  2801              CMP      r0,#1
00000e  d01d              BEQ      |L12.76|
;;;850    	{
;;;851    		CanPkg.id = MAKE_SMP_CAN_ID(SMP_CAN_FUN_CMD_TX, canParScuId(),
;;;852    									SMP_CMD_PAR_RD_OBJ_INDEX,
;;;853    									SMP_PAR_ID_DOTP_PROTECT);
;;;854    				
;;;855    		CanPkg.dlc = 5;
;;;856    		CanPkg.dat[0] = pCanPkg->dat[0];		
;;;857    		apiSysParGetDotpPar(pCanPkg->dat[0], &ProtectPar);
;;;858    		CanPkg.dat[1] = ProtectPar.SetValue.b[0];
;;;859    		CanPkg.dat[2] = ProtectPar.STime.b[0];
;;;860    		CanPkg.dat[3] = ProtectPar.RelValue.b[0];
;;;861    		CanPkg.dat[4] = ProtectPar.RTime.b[0];
;;;862    
;;;863    		appSerialCanDavinciParDebugMsg("Read Dotp");
;;;864    	}
;;;865    	else if(isParWritable())
000010  f7fffffe          BL       isParWritable
000014  2800              CMP      r0,#0
000016  d017              BEQ      |L12.72|
;;;866    	{
;;;867    		CanPkg.id = MAKE_SMP_CAN_ID(SMP_CAN_FUN_CMD_TX, canParScuId(),
000018  f7fffffe          BL       appProjectGetScuId
00001c  491c              LDR      r1,|L12.144|
00001e  ea414080          ORR      r0,r1,r0,LSL #18
000022  9004              STR      r0,[sp,#0x10]
;;;868    									SMP_CMD_PAR_WR_OBJ_INDEX,
;;;869    									SMP_PAR_ID_DOTP_PROTECT);
;;;870    		CanPkg.dlc = 0;
000024  2000              MOVS     r0,#0
000026  f88d0014          STRB     r0,[sp,#0x14]
;;;871    		ProtectPar.SetValue.l = pCanPkg->dat[1];
00002a  79a0              LDRB     r0,[r4,#6]
00002c  9000              STR      r0,[sp,#0]
;;;872    		ProtectPar.STime.l = pCanPkg->dat[2];
00002e  79e0              LDRB     r0,[r4,#7]
000030  9001              STR      r0,[sp,#4]
;;;873    		ProtectPar.RelValue.l = pCanPkg->dat[3];
000032  7a20              LDRB     r0,[r4,#8]
000034  9002              STR      r0,[sp,#8]
;;;874    		ProtectPar.RTime.l = pCanPkg->dat[4];
000036  7a60              LDRB     r0,[r4,#9]
000038  9003              STR      r0,[sp,#0xc]
;;;875    
;;;876    		apiSysParSetDotpPar(pCanPkg->dat[0], &ProtectPar);
00003a  7960              LDRB     r0,[r4,#5]
00003c  4669              MOV      r1,sp
00003e  f7fffffe          BL       apiSysParSetDotpPar
                  |L12.66|
;;;877    		appSerialCanDavinciParDebugMsg("Write Dotp");
;;;878    	}
;;;879    	else
;;;880    		return;
;;;881    	appSerialCanDavinciPutPkgToCanFifo(&CanPkg);	
000042  a804              ADD      r0,sp,#0x10
000044  f7fffffe          BL       appSerialCanDavinciPutPkgToCanFifo
                  |L12.72|
;;;882    }
000048  b008              ADD      sp,sp,#0x20
00004a  bd10              POP      {r4,pc}
                  |L12.76|
00004c  f7fffffe          BL       appProjectGetScuId
000050  4910              LDR      r1,|L12.148|
000052  ea414080          ORR      r0,r1,r0,LSL #18      ;851
000056  9004              STR      r0,[sp,#0x10]         ;851
000058  2005              MOVS     r0,#5                 ;855
00005a  f88d0014          STRB     r0,[sp,#0x14]         ;855
00005e  7960              LDRB     r0,[r4,#5]            ;856
000060  f88d0015          STRB     r0,[sp,#0x15]         ;856
000064  7960              LDRB     r0,[r4,#5]            ;857
000066  4669              MOV      r1,sp                 ;857
000068  f7fffffe          BL       apiSysParGetDotpPar
00006c  f89d0000          LDRB     r0,[sp,#0]            ;858
000070  f88d0016          STRB     r0,[sp,#0x16]         ;858
000074  f89d0004          LDRB     r0,[sp,#4]            ;859
000078  f88d0017          STRB     r0,[sp,#0x17]         ;859
00007c  f89d0008          LDRB     r0,[sp,#8]            ;860
000080  f88d0018          STRB     r0,[sp,#0x18]         ;860
000084  f89d000c          LDRB     r0,[sp,#0xc]          ;861
000088  f88d0019          STRB     r0,[sp,#0x19]         ;861
00008c  e7d9              B        |L12.66|
;;;883    static void DavinciCanParameterDutp(smp_can_package_t *pCanPkg)
                          ENDP

00008e  0000              DCW      0x0000
                  |L12.144|
                          DCD      0x06000064
                  |L12.148|
                          DCD      0x06000464

                          AREA ||i.DavinciCanParameterDtp||, CODE, READONLY, ALIGN=2

                  DavinciCanParameterDtp PROC
;;;921    }
;;;922    static void DavinciCanParameterDtp(smp_can_package_t *pCanPkg)
000000  b510              PUSH     {r4,lr}
;;;923    {
000002  b088              SUB      sp,sp,#0x20
000004  4604              MOV      r4,r0
;;;924    	smp_can_package_t	CanPkg;
;;;925    	tScuProtectPar		ProtectPar;
;;;926    
;;;927    	if(SMP_CAN_GET_OBJ_INDEX(pCanPkg->id) == SMP_CMD_PAR_RD_OBJ_INDEX)
000006  6820              LDR      r0,[r4,#0]
000008  f3c02087          UBFX     r0,r0,#10,#8
00000c  2801              CMP      r0,#1
00000e  d01d              BEQ      |L13.76|
;;;928    	{
;;;929    		CanPkg.id = MAKE_SMP_CAN_ID(SMP_CAN_FUN_CMD_TX, canParScuId(),
;;;930    									SMP_CMD_PAR_RD_OBJ_INDEX,
;;;931    									SMP_PAR_ID_DTP_PROTECT);
;;;932    				
;;;933    		CanPkg.dlc = 5;
;;;934    		CanPkg.dat[0] = pCanPkg->dat[0];		
;;;935    		
;;;936    		apiSysParGetDtpPar(pCanPkg->dat[0], &ProtectPar);
;;;937    		
;;;938    		CanPkg.dat[1] = ProtectPar.SetValue.b[0];
;;;939    		CanPkg.dat[2] = ProtectPar.STime.b[0];
;;;940    		CanPkg.dat[3] = ProtectPar.RelValue.b[0];
;;;941    		CanPkg.dat[4] = ProtectPar.RTime.b[0];
;;;942    
;;;943    		appSerialCanDavinciParDebugMsg("Read Dtp");
;;;944    	}
;;;945    	else if(isParWritable())
000010  f7fffffe          BL       isParWritable
000014  2800              CMP      r0,#0
000016  d017              BEQ      |L13.72|
;;;946    	{
;;;947    		CanPkg.id = MAKE_SMP_CAN_ID(SMP_CAN_FUN_CMD_TX, canParScuId(),
000018  f7fffffe          BL       appProjectGetScuId
00001c  491c              LDR      r1,|L13.144|
00001e  ea414080          ORR      r0,r1,r0,LSL #18
000022  9004              STR      r0,[sp,#0x10]
;;;948    									SMP_CMD_PAR_WR_OBJ_INDEX,
;;;949    									SMP_PAR_ID_DTP_PROTECT);
;;;950    		CanPkg.dlc = 0;
000024  2000              MOVS     r0,#0
000026  f88d0014          STRB     r0,[sp,#0x14]
;;;951    		ProtectPar.SetValue.l = pCanPkg->dat[1];
00002a  79a0              LDRB     r0,[r4,#6]
00002c  9000              STR      r0,[sp,#0]
;;;952    		ProtectPar.STime.l = pCanPkg->dat[2];
00002e  79e0              LDRB     r0,[r4,#7]
000030  9001              STR      r0,[sp,#4]
;;;953    		ProtectPar.RelValue.l = pCanPkg->dat[3];
000032  7a20              LDRB     r0,[r4,#8]
000034  9002              STR      r0,[sp,#8]
;;;954    		ProtectPar.RTime.l = pCanPkg->dat[4];
000036  7a60              LDRB     r0,[r4,#9]
000038  9003              STR      r0,[sp,#0xc]
;;;955    
;;;956    		apiSysParSetDtpPar(pCanPkg->dat[0], &ProtectPar);
00003a  7960              LDRB     r0,[r4,#5]
00003c  4669              MOV      r1,sp
00003e  f7fffffe          BL       apiSysParSetDtpPar
                  |L13.66|
;;;957    		appSerialCanDavinciParDebugMsg("Write Dtp");
;;;958    	}
;;;959    	else
;;;960    		return;
;;;961    	appSerialCanDavinciPutPkgToCanFifo(&CanPkg);
000042  a804              ADD      r0,sp,#0x10
000044  f7fffffe          BL       appSerialCanDavinciPutPkgToCanFifo
                  |L13.72|
;;;962    	
;;;963    }
000048  b008              ADD      sp,sp,#0x20
00004a  bd10              POP      {r4,pc}
                  |L13.76|
00004c  f7fffffe          BL       appProjectGetScuId
000050  4910              LDR      r1,|L13.148|
000052  ea414080          ORR      r0,r1,r0,LSL #18      ;929
000056  9004              STR      r0,[sp,#0x10]         ;929
000058  2005              MOVS     r0,#5                 ;933
00005a  f88d0014          STRB     r0,[sp,#0x14]         ;933
00005e  7960              LDRB     r0,[r4,#5]            ;934
000060  f88d0015          STRB     r0,[sp,#0x15]         ;934
000064  7960              LDRB     r0,[r4,#5]            ;936
000066  4669              MOV      r1,sp                 ;936
000068  f7fffffe          BL       apiSysParGetDtpPar
00006c  f89d0000          LDRB     r0,[sp,#0]            ;938
000070  f88d0016          STRB     r0,[sp,#0x16]         ;938
000074  f89d0004          LDRB     r0,[sp,#4]            ;939
000078  f88d0017          STRB     r0,[sp,#0x17]         ;939
00007c  f89d0008          LDRB     r0,[sp,#8]            ;940
000080  f88d0018          STRB     r0,[sp,#0x18]         ;940
000084  f89d000c          LDRB     r0,[sp,#0xc]          ;941
000088  f88d0019          STRB     r0,[sp,#0x19]         ;941
00008c  e7d9              B        |L13.66|
;;;964    
                          ENDP

00008e  0000              DCW      0x0000
                  |L13.144|
                          DCD      0x06000066
                  |L13.148|
                          DCD      0x06000466

                          AREA ||i.DavinciCanParameterDutp||, CODE, READONLY, ALIGN=2

                  DavinciCanParameterDutp PROC
;;;882    }
;;;883    static void DavinciCanParameterDutp(smp_can_package_t *pCanPkg)
000000  b510              PUSH     {r4,lr}
;;;884    {
000002  b088              SUB      sp,sp,#0x20
000004  4604              MOV      r4,r0
;;;885    	smp_can_package_t	CanPkg;
;;;886    	tScuProtectPar		ProtectPar;
;;;887    
;;;888    	if(SMP_CAN_GET_OBJ_INDEX(pCanPkg->id) == SMP_CMD_PAR_RD_OBJ_INDEX)
000006  6820              LDR      r0,[r4,#0]
000008  f3c02087          UBFX     r0,r0,#10,#8
00000c  2801              CMP      r0,#1
00000e  d01d              BEQ      |L14.76|
;;;889    	{
;;;890    		CanPkg.id = MAKE_SMP_CAN_ID(SMP_CAN_FUN_CMD_TX, canParScuId(),
;;;891    									SMP_CMD_PAR_RD_OBJ_INDEX,
;;;892    									SMP_PAR_ID_DUTP_PROTECT);
;;;893    				
;;;894    		CanPkg.dlc = 5;
;;;895    		CanPkg.dat[0] = pCanPkg->dat[0];		
;;;896    		apiSysParGetDutpPar(pCanPkg->dat[0], &ProtectPar);
;;;897    		CanPkg.dat[1] = ProtectPar.SetValue.b[0];
;;;898    		CanPkg.dat[2] = ProtectPar.STime.b[0];
;;;899    		CanPkg.dat[3] = ProtectPar.RelValue.b[0];
;;;900    		CanPkg.dat[4] = ProtectPar.RTime.b[0];
;;;901    
;;;902    		appSerialCanDavinciParDebugMsg("Read Dutp");
;;;903    	}
;;;904    	else if(isParWritable())
000010  f7fffffe          BL       isParWritable
000014  2800              CMP      r0,#0
000016  d017              BEQ      |L14.72|
;;;905    	{
;;;906    		CanPkg.id = MAKE_SMP_CAN_ID(SMP_CAN_FUN_CMD_TX, canParScuId(),
000018  f7fffffe          BL       appProjectGetScuId
00001c  491c              LDR      r1,|L14.144|
00001e  ea414080          ORR      r0,r1,r0,LSL #18
000022  9004              STR      r0,[sp,#0x10]
;;;907    									SMP_CMD_PAR_WR_OBJ_INDEX,
;;;908    									SMP_PAR_ID_DUTP_PROTECT);
;;;909    		CanPkg.dlc = 0;
000024  2000              MOVS     r0,#0
000026  f88d0014          STRB     r0,[sp,#0x14]
;;;910    		ProtectPar.SetValue.l = pCanPkg->dat[1];
00002a  79a0              LDRB     r0,[r4,#6]
00002c  9000              STR      r0,[sp,#0]
;;;911    		ProtectPar.STime.l = pCanPkg->dat[2];
00002e  79e0              LDRB     r0,[r4,#7]
000030  9001              STR      r0,[sp,#4]
;;;912    		ProtectPar.RelValue.l = pCanPkg->dat[3];
000032  7a20              LDRB     r0,[r4,#8]
000034  9002              STR      r0,[sp,#8]
;;;913    		ProtectPar.RTime.l = pCanPkg->dat[4];
000036  7a60              LDRB     r0,[r4,#9]
000038  9003              STR      r0,[sp,#0xc]
;;;914    
;;;915    		apiSysParSetDutpPar(pCanPkg->dat[0], &ProtectPar);
00003a  7960              LDRB     r0,[r4,#5]
00003c  4669              MOV      r1,sp
00003e  f7fffffe          BL       apiSysParSetDutpPar
                  |L14.66|
;;;916    		appSerialCanDavinciParDebugMsg("Write Dutp");
;;;917    	}
;;;918    	else
;;;919    		return;
;;;920    	appSerialCanDavinciPutPkgToCanFifo(&CanPkg);
000042  a804              ADD      r0,sp,#0x10
000044  f7fffffe          BL       appSerialCanDavinciPutPkgToCanFifo
                  |L14.72|
;;;921    }
000048  b008              ADD      sp,sp,#0x20
00004a  bd10              POP      {r4,pc}
                  |L14.76|
00004c  f7fffffe          BL       appProjectGetScuId
000050  4910              LDR      r1,|L14.148|
000052  ea414080          ORR      r0,r1,r0,LSL #18      ;890
000056  9004              STR      r0,[sp,#0x10]         ;890
000058  2005              MOVS     r0,#5                 ;894
00005a  f88d0014          STRB     r0,[sp,#0x14]         ;894
00005e  7960              LDRB     r0,[r4,#5]            ;895
000060  f88d0015          STRB     r0,[sp,#0x15]         ;895
000064  7960              LDRB     r0,[r4,#5]            ;896
000066  4669              MOV      r1,sp                 ;896
000068  f7fffffe          BL       apiSysParGetDutpPar
00006c  f89d0000          LDRB     r0,[sp,#0]            ;897
000070  f88d0016          STRB     r0,[sp,#0x16]         ;897
000074  f89d0004          LDRB     r0,[sp,#4]            ;898
000078  f88d0017          STRB     r0,[sp,#0x17]         ;898
00007c  f89d0008          LDRB     r0,[sp,#8]            ;899
000080  f88d0018          STRB     r0,[sp,#0x18]         ;899
000084  f89d000c          LDRB     r0,[sp,#0xc]          ;900
000088  f88d0019          STRB     r0,[sp,#0x19]         ;900
00008c  e7d9              B        |L14.66|
;;;922    static void DavinciCanParameterDtp(smp_can_package_t *pCanPkg)
                          ENDP

00008e  0000              DCW      0x0000
                  |L14.144|
                          DCD      0x06000065
                  |L14.148|
                          DCD      0x06000465

                          AREA ||i.DavinciCanParameterFlatVoltage||, CODE, READONLY, ALIGN=2

                  DavinciCanParameterFlatVoltage PROC
;;;385    
;;;386    static void DavinciCanParameterFlatVoltage(smp_can_package_t *pCanPkg)
000000  b510              PUSH     {r4,lr}
;;;387    {
000002  b088              SUB      sp,sp,#0x20
000004  4604              MOV      r4,r0
;;;388    	smp_can_package_t	CanPkg;
;;;389    	tScuProtectPar		ProtectPar;
;;;390    	
;;;391    	
;;;392    
;;;393    	if(SMP_CAN_GET_OBJ_INDEX(pCanPkg->id) == SMP_CMD_PAR_RD_OBJ_INDEX)
000006  6820              LDR      r0,[r4,#0]
000008  f3c02087          UBFX     r0,r0,#10,#8
00000c  2801              CMP      r0,#1
00000e  d01e              BEQ      |L15.78|
;;;394    	{
;;;395    		CanPkg.id = MAKE_SMP_CAN_ID(SMP_CAN_FUN_CMD_TX, canParScuId(),
;;;396    									SMP_CMD_PAR_RD_OBJ_INDEX,
;;;397    									SMP_PAR_ID_FLAT_VOLTAGE);
;;;398    		CanPkg.dlc = 4;
;;;399    		apiSysParGetFlatVoltage(&ProtectPar);
;;;400    
;;;401    		CanPkg.dat[0] = ProtectPar.SetValue.b[0];
;;;402    		CanPkg.dat[1] = ProtectPar.SetValue.b[1];
;;;403    		CanPkg.dat[2] = ProtectPar.STime.b[0];
;;;404    		CanPkg.dat[3] = ProtectPar.STime.b[1];
;;;405    		appSerialCanDavinciParDebugMsg("Read flat voltage");
;;;406    	}
;;;407    	else if(isParWritable())
000010  f7fffffe          BL       isParWritable
000014  2800              CMP      r0,#0
000016  d018              BEQ      |L15.74|
;;;408    	{
;;;409    		CanPkg.id = MAKE_SMP_CAN_ID(SMP_CAN_FUN_CMD_TX, canParScuId(),
000018  f7fffffe          BL       appProjectGetScuId
00001c  491a              LDR      r1,|L15.136|
00001e  ea414080          ORR      r0,r1,r0,LSL #18
000022  9004              STR      r0,[sp,#0x10]
;;;410    									SMP_CMD_PAR_WR_OBJ_INDEX,
;;;411    									SMP_PAR_ID_FLAT_VOLTAGE);																		
;;;412    		CanPkg.dlc = 0;
000024  2000              MOVS     r0,#0
000026  f88d0014          STRB     r0,[sp,#0x14]
;;;413    		ProtectPar.SetValue.l = GET_WORD(&pCanPkg->dat[0]);
00002a  7960              LDRB     r0,[r4,#5]
00002c  79a1              LDRB     r1,[r4,#6]
00002e  eb002001          ADD      r0,r0,r1,LSL #8
000032  9000              STR      r0,[sp,#0]
;;;414    		ProtectPar.STime.l = GET_WORD(&pCanPkg->dat[2]);
000034  79e0              LDRB     r0,[r4,#7]
000036  7a21              LDRB     r1,[r4,#8]
000038  eb002001          ADD      r0,r0,r1,LSL #8
00003c  9001              STR      r0,[sp,#4]
;;;415    
;;;416    		apiSysParSetFlatVoltage(&ProtectPar);
00003e  4668              MOV      r0,sp
000040  f7fffffe          BL       apiSysParSetFlatVoltage
                  |L15.68|
;;;417    		appSerialCanDavinciParDebugMsg("write flat voltage");
;;;418    	}
;;;419    	else
;;;420    		return;
;;;421    	appSerialCanDavinciPutPkgToCanFifo(&CanPkg);	
000044  a804              ADD      r0,sp,#0x10
000046  f7fffffe          BL       appSerialCanDavinciPutPkgToCanFifo
                  |L15.74|
;;;422    }           
00004a  b008              ADD      sp,sp,#0x20
00004c  bd10              POP      {r4,pc}
                  |L15.78|
00004e  f7fffffe          BL       appProjectGetScuId
000052  490e              LDR      r1,|L15.140|
000054  ea414080          ORR      r0,r1,r0,LSL #18      ;395
000058  9004              STR      r0,[sp,#0x10]         ;395
00005a  2004              MOVS     r0,#4                 ;398
00005c  f88d0014          STRB     r0,[sp,#0x14]         ;398
000060  4668              MOV      r0,sp                 ;399
000062  f7fffffe          BL       apiSysParGetFlatVoltage
000066  f89d0000          LDRB     r0,[sp,#0]            ;401
00006a  f88d0015          STRB     r0,[sp,#0x15]         ;401
00006e  f89d0001          LDRB     r0,[sp,#1]            ;402
000072  f88d0016          STRB     r0,[sp,#0x16]         ;402
000076  f89d0004          LDRB     r0,[sp,#4]            ;403
00007a  f88d0017          STRB     r0,[sp,#0x17]         ;403
00007e  f89d0005          LDRB     r0,[sp,#5]            ;404
000082  f88d0018          STRB     r0,[sp,#0x18]         ;404
000086  e7dd              B        |L15.68|
;;;423      
                          ENDP

                  |L15.136|
                          DCD      0x06000029
                  |L15.140|
                          DCD      0x06000429

                          AREA ||i.DavinciCanParameterFullChargeCondition||, CODE, READONLY, ALIGN=2

                  DavinciCanParameterFullChargeCondition PROC
;;;344                
;;;345    static void DavinciCanParameterFullChargeCondition(smp_can_package_t *pCanPkg)
000000  b510              PUSH     {r4,lr}
;;;346    {
000002  b088              SUB      sp,sp,#0x20
000004  4604              MOV      r4,r0
;;;347    	smp_can_package_t	CanPkg;
;;;348    	tScuProtectPar		ProtectPar;
;;;349    	
;;;350    	
;;;351    
;;;352    	if(SMP_CAN_GET_OBJ_INDEX(pCanPkg->id) == SMP_CMD_PAR_RD_OBJ_INDEX)
000006  6820              LDR      r0,[r4,#0]
000008  f3c02087          UBFX     r0,r0,#10,#8
00000c  2801              CMP      r0,#1
00000e  d020              BEQ      |L16.82|
;;;353    	{
;;;354    		CanPkg.id = MAKE_SMP_CAN_ID(SMP_CAN_FUN_CMD_TX, canParScuId(),
;;;355    									SMP_CMD_PAR_RD_OBJ_INDEX,
;;;356    									SMP_PAR_ID_TAPER_CURRENT);
;;;357    		CanPkg.dlc = 5;
;;;358    		apiSysParGetFullChargeCondition(&ProtectPar);
;;;359    
;;;360    		CanPkg.dat[0] = ProtectPar.SetValue.b[0];
;;;361    		CanPkg.dat[1] = ProtectPar.SetValue.b[1];
;;;362    		CanPkg.dat[2] = ProtectPar.STime.b[0];
;;;363    		CanPkg.dat[3] = ProtectPar.STime.b[1];
;;;364    		CanPkg.dat[4] = ProtectPar.RelValue.b[0];
;;;365    
;;;366    		appSerialCanDavinciParDebugMsg("Read full charge condition");
;;;367    	}
;;;368    	else if(isParWritable())
000010  f7fffffe          BL       isParWritable
000014  2800              CMP      r0,#0
000016  d01a              BEQ      |L16.78|
;;;369    	{
;;;370    		CanPkg.id = MAKE_SMP_CAN_ID(SMP_CAN_FUN_CMD_TX, canParScuId(),
000018  f7fffffe          BL       appProjectGetScuId
00001c  491d              LDR      r1,|L16.148|
00001e  ea414080          ORR      r0,r1,r0,LSL #18
000022  9004              STR      r0,[sp,#0x10]
;;;371    									SMP_CMD_PAR_WR_OBJ_INDEX,
;;;372    									SMP_PAR_ID_TAPER_CURRENT);																		
;;;373    		CanPkg.dlc = 0;
000024  2000              MOVS     r0,#0
000026  f88d0014          STRB     r0,[sp,#0x14]
;;;374    		ProtectPar.SetValue.l = GET_WORD(&pCanPkg->dat[0]);
00002a  7960              LDRB     r0,[r4,#5]
00002c  79a1              LDRB     r1,[r4,#6]
00002e  eb002001          ADD      r0,r0,r1,LSL #8
000032  9000              STR      r0,[sp,#0]
;;;375    		ProtectPar.STime.l = GET_WORD(&pCanPkg->dat[2]);
000034  79e0              LDRB     r0,[r4,#7]
000036  7a21              LDRB     r1,[r4,#8]
000038  eb002001          ADD      r0,r0,r1,LSL #8
00003c  9001              STR      r0,[sp,#4]
;;;376    		ProtectPar.RelValue.l = pCanPkg->dat[4];
00003e  7a60              LDRB     r0,[r4,#9]
000040  9002              STR      r0,[sp,#8]
;;;377    
;;;378    		apiSysParSetFullChargeCondition(&ProtectPar);
000042  4668              MOV      r0,sp
000044  f7fffffe          BL       apiSysParSetFullChargeCondition
                  |L16.72|
;;;379    		appSerialCanDavinciParDebugMsg("write full charge condition");
;;;380    	}
;;;381    	else
;;;382    		return;
;;;383    	appSerialCanDavinciPutPkgToCanFifo(&CanPkg);	
000048  a804              ADD      r0,sp,#0x10
00004a  f7fffffe          BL       appSerialCanDavinciPutPkgToCanFifo
                  |L16.78|
;;;384    }            
00004e  b008              ADD      sp,sp,#0x20
000050  bd10              POP      {r4,pc}
                  |L16.82|
000052  f7fffffe          BL       appProjectGetScuId
000056  4910              LDR      r1,|L16.152|
000058  ea414080          ORR      r0,r1,r0,LSL #18      ;354
00005c  9004              STR      r0,[sp,#0x10]         ;354
00005e  2005              MOVS     r0,#5                 ;357
000060  f88d0014          STRB     r0,[sp,#0x14]         ;357
000064  4668              MOV      r0,sp                 ;358
000066  f7fffffe          BL       apiSysParGetFullChargeCondition
00006a  f89d0000          LDRB     r0,[sp,#0]            ;360
00006e  f88d0015          STRB     r0,[sp,#0x15]         ;360
000072  f89d0001          LDRB     r0,[sp,#1]            ;361
000076  f88d0016          STRB     r0,[sp,#0x16]         ;361
00007a  f89d0004          LDRB     r0,[sp,#4]            ;362
00007e  f88d0017          STRB     r0,[sp,#0x17]         ;362
000082  f89d0005          LDRB     r0,[sp,#5]            ;363
000086  f88d0018          STRB     r0,[sp,#0x18]         ;363
00008a  f89d0008          LDRB     r0,[sp,#8]            ;364
00008e  f88d0019          STRB     r0,[sp,#0x19]         ;364
000092  e7d9              B        |L16.72|
;;;385    
                          ENDP

                  |L16.148|
                          DCD      0x06000028
                  |L16.152|
                          DCD      0x06000428

                          AREA ||i.DavinciCanParameterFwBuildDateTime||, CODE, READONLY, ALIGN=2

                  DavinciCanParameterFwBuildDateTime PROC
;;;170    
;;;171    static void DavinciCanParameterFwBuildDateTime(smp_can_package_t *pCanPkg)
000000  b51f              PUSH     {r0-r4,lr}
;;;172    {
;;;173    	smp_can_package_t	CanPkg;
;;;174    	tLbyte	version;
;;;175    
;;;176    	if(SMP_CAN_GET_OBJ_INDEX(pCanPkg->id) == SMP_CMD_PAR_RD_OBJ_INDEX)
000002  6800              LDR      r0,[r0,#0]
000004  f3c02087          UBFX     r0,r0,#10,#8
000008  2801              CMP      r0,#1
00000a  d010              BEQ      |L17.46|
;;;177    	{
;;;178    		CanPkg.id = MAKE_SMP_CAN_ID(SMP_CAN_FUN_CMD_TX, canParScuId(),
;;;179    									SMP_CMD_PAR_RD_OBJ_INDEX,
;;;180    									SMP_PAR_ID_FW_BUILD_DATE_TIME);
;;;181    		CanPkg.dlc = 7;
;;;182    		CanPkg.dat[3] = 0x20;
;;;183    		CanPkg.dat[2] = 0x21;
;;;184    		CanPkg.dat[1] = 0x10;
;;;185    		CanPkg.dat[0] = 0x26;
;;;186    		
;;;187    		CanPkg.dat[6] = 0x17;
;;;188    		CanPkg.dat[5] = 0x57;
;;;189    		CanPkg.dat[4] = 0x26;
;;;190    		
;;;191    		appSerialCanDavinciParDebugMsg("Read Fw date time");
;;;192    	}
;;;193    	else if(isParWritable())
00000c  f7fffffe          BL       isParWritable
000010  2800              CMP      r0,#0
000012  d00b              BEQ      |L17.44|
;;;194    	{
;;;195    		CanPkg.id = MAKE_SMP_CAN_ID(SMP_CAN_FUN_CMD_TX, canParScuId(),
000014  f7fffffe          BL       appProjectGetScuId
000018  4914              LDR      r1,|L17.108|
00001a  ea414080          ORR      r0,r1,r0,LSL #18
00001e  9000              STR      r0,[sp,#0]
;;;196    									SMP_CMD_PAR_WR_OBJ_INDEX,
;;;197    									SMP_PAR_ID_FW_BUILD_DATE_TIME);
;;;198    		CanPkg.dlc = 0;
000020  2000              MOVS     r0,#0
000022  f88d0004          STRB     r0,[sp,#4]
                  |L17.38|
;;;199    		appSerialCanDavinciParDebugMsg("Can't write date time");
;;;200    	}
;;;201    	else
;;;202    		return;
;;;203    	appSerialCanDavinciPutPkgToCanFifo(&CanPkg);
000026  4668              MOV      r0,sp
000028  f7fffffe          BL       appSerialCanDavinciPutPkgToCanFifo
                  |L17.44|
;;;204    
;;;205    }
00002c  bd1f              POP      {r0-r4,pc}
                  |L17.46|
00002e  f7fffffe          BL       appProjectGetScuId
000032  490f              LDR      r1,|L17.112|
000034  ea414080          ORR      r0,r1,r0,LSL #18      ;178
000038  9000              STR      r0,[sp,#0]            ;178
00003a  2007              MOVS     r0,#7                 ;181
00003c  f88d0004          STRB     r0,[sp,#4]            ;181
000040  2020              MOVS     r0,#0x20              ;182
000042  f88d0008          STRB     r0,[sp,#8]            ;182
000046  2021              MOVS     r0,#0x21              ;183
000048  f88d0007          STRB     r0,[sp,#7]            ;183
00004c  2010              MOVS     r0,#0x10              ;184
00004e  f88d0006          STRB     r0,[sp,#6]            ;184
000052  2026              MOVS     r0,#0x26              ;185
000054  f88d0005          STRB     r0,[sp,#5]            ;185
000058  2117              MOVS     r1,#0x17              ;187
00005a  f88d100b          STRB     r1,[sp,#0xb]          ;187
00005e  2157              MOVS     r1,#0x57              ;188
000060  f88d100a          STRB     r1,[sp,#0xa]          ;188
000064  f88d0009          STRB     r0,[sp,#9]            ;189
000068  e7dd              B        |L17.38|
;;;206    
                          ENDP

00006a  0000              DCW      0x0000
                  |L17.108|
                          DCD      0x06000003
                  |L17.112|
                          DCD      0x06000403

                          AREA ||i.DavinciCanParameterFwVersion||, CODE, READONLY, ALIGN=2

                  DavinciCanParameterFwVersion PROC
;;;139    
;;;140    static void DavinciCanParameterFwVersion(smp_can_package_t *pCanPkg){
000000  b500              PUSH     {lr}
000002  b085              SUB      sp,sp,#0x14
;;;141    	smp_can_package_t	CanPkg;
;;;142    	tLbyte	version;
;;;143    
;;;144    	if(SMP_CAN_GET_OBJ_INDEX(pCanPkg->id) == SMP_CMD_PAR_RD_OBJ_INDEX)
000004  6800              LDR      r0,[r0,#0]
000006  f3c02087          UBFX     r0,r0,#10,#8
00000a  2801              CMP      r0,#1
00000c  d011              BEQ      |L18.50|
;;;145    	{
;;;146    		CanPkg.id = MAKE_SMP_CAN_ID(SMP_CAN_FUN_CMD_TX, canParScuId(),
;;;147    									SMP_CMD_PAR_RD_OBJ_INDEX,
;;;148    									SMP_PAR_ID_FW_VERSION);
;;;149    		CanPkg.dlc = 3;
;;;150    		version.l = apiSysParGetFwVersion();
;;;151    		CanPkg.dat[0] = version.b[0];
;;;152    		CanPkg.dat[1] = version.b[1];
;;;153    		CanPkg.dat[2] = version.b[2];
;;;154    		
;;;155    		appSerialCanDavinciParDebugMsg("Read Hw Version");
;;;156    	}
;;;157    	else if(isParWritable())
00000e  f7fffffe          BL       isParWritable
000012  2800              CMP      r0,#0
000014  d00b              BEQ      |L18.46|
;;;158    	{
;;;159    		CanPkg.id = MAKE_SMP_CAN_ID(SMP_CAN_FUN_CMD_TX, canParScuId(),
000016  f7fffffe          BL       appProjectGetScuId
00001a  4912              LDR      r1,|L18.100|
00001c  ea414080          ORR      r0,r1,r0,LSL #18
000020  9001              STR      r0,[sp,#4]
;;;160    									SMP_CMD_PAR_WR_OBJ_INDEX,
;;;161    									SMP_PAR_ID_FW_VERSION);
;;;162    		CanPkg.dlc = 0;
000022  2000              MOVS     r0,#0
000024  f88d0008          STRB     r0,[sp,#8]
                  |L18.40|
;;;163    		appSerialCanDavinciParDebugMsg("Can't write Hw Version");
;;;164    	}
;;;165    	else
;;;166    		return;
;;;167    	appSerialCanDavinciPutPkgToCanFifo(&CanPkg);
000028  a801              ADD      r0,sp,#4
00002a  f7fffffe          BL       appSerialCanDavinciPutPkgToCanFifo
                  |L18.46|
;;;168    
;;;169    }
00002e  b005              ADD      sp,sp,#0x14
000030  bd00              POP      {pc}
                  |L18.50|
000032  f7fffffe          BL       appProjectGetScuId
000036  490c              LDR      r1,|L18.104|
000038  ea414080          ORR      r0,r1,r0,LSL #18      ;146
00003c  9001              STR      r0,[sp,#4]            ;146
00003e  2003              MOVS     r0,#3                 ;149
000040  f88d0008          STRB     r0,[sp,#8]            ;149
000044  f7fffffe          BL       apiSysParGetFwVersion
000048  9000              STR      r0,[sp,#0]            ;150
00004a  f89d0000          LDRB     r0,[sp,#0]            ;151
00004e  f88d0009          STRB     r0,[sp,#9]            ;151
000052  f89d0001          LDRB     r0,[sp,#1]            ;152
000056  f88d000a          STRB     r0,[sp,#0xa]          ;152
00005a  f89d0002          LDRB     r0,[sp,#2]            ;153
00005e  f88d000b          STRB     r0,[sp,#0xb]          ;153
000062  e7e1              B        |L18.40|
;;;170    
                          ENDP

                  |L18.100|
                          DCD      0x06000002
                  |L18.104|
                          DCD      0x06000402

                          AREA ||i.DavinciCanParameterHwVersion||, CODE, READONLY, ALIGN=2

                  DavinciCanParameterHwVersion PROC
;;;107    
;;;108    static void DavinciCanParameterHwVersion(smp_can_package_t *pCanPkg){
000000  b510              PUSH     {r4,lr}
000002  b086              SUB      sp,sp,#0x18
000004  4604              MOV      r4,r0
;;;109    	smp_can_package_t	CanPkg;
;;;110    	tLbyte	version;
;;;111    
;;;112    	if(SMP_CAN_GET_OBJ_INDEX(pCanPkg->id) == SMP_CMD_PAR_RD_OBJ_INDEX)
000006  6820              LDR      r0,[r4,#0]
000008  f3c02087          UBFX     r0,r0,#10,#8
00000c  2801              CMP      r0,#1
00000e  d018              BEQ      |L19.66|
;;;113    	{
;;;114    		CanPkg.id = MAKE_SMP_CAN_ID(SMP_CAN_FUN_CMD_TX, canParScuId(),
;;;115    									SMP_CMD_PAR_RD_OBJ_INDEX,
;;;116    									SMP_PAR_ID_HW_VERSION);
;;;117    		CanPkg.dlc = 2;
;;;118    		version.l = apiSysParGetHwVersion();
;;;119    		CanPkg.dat[0] = version.b[0];
;;;120    		CanPkg.dat[1] = version.b[1];
;;;121    		
;;;122    		//appSerialCanDavinciParDebugMsg("Read Hw Version");
;;;123    	}
;;;124    	else if(isParWritable())
000010  f7fffffe          BL       isParWritable
000014  2800              CMP      r0,#0
000016  d012              BEQ      |L19.62|
;;;125    	{
;;;126    		CanPkg.id = MAKE_SMP_CAN_ID(SMP_CAN_FUN_CMD_TX, canParScuId(),
000018  f7fffffe          BL       appProjectGetScuId
00001c  4913              LDR      r1,|L19.108|
00001e  ea414080          ORR      r0,r1,r0,LSL #18
000022  9002              STR      r0,[sp,#8]
;;;127    									SMP_CMD_PAR_WR_OBJ_INDEX,
;;;128    									SMP_PAR_ID_HW_VERSION);
;;;129    		CanPkg.dlc = 0;
000024  2000              MOVS     r0,#0
000026  f88d000c          STRB     r0,[sp,#0xc]
;;;130    
;;;131    		version.l =  GET_WORD(&pCanPkg->dat[0]);
00002a  7960              LDRB     r0,[r4,#5]
00002c  79a1              LDRB     r1,[r4,#6]
00002e  eb002001          ADD      r0,r0,r1,LSL #8
000032  9001              STR      r0,[sp,#4]
;;;132    		apiSysParSetHwVersion(version.l);
000034  f7fffffe          BL       apiSysParSetHwVersion
                  |L19.56|
;;;133    		appSerialCanDavinciParDebugMsg("Write Hw Version");
;;;134    	}
;;;135    	else
;;;136    		return;
;;;137    	appSerialCanDavinciPutPkgToCanFifo(&CanPkg);
000038  a802              ADD      r0,sp,#8
00003a  f7fffffe          BL       appSerialCanDavinciPutPkgToCanFifo
                  |L19.62|
;;;138    }
00003e  b006              ADD      sp,sp,#0x18
000040  bd10              POP      {r4,pc}
                  |L19.66|
000042  f7fffffe          BL       appProjectGetScuId
000046  490a              LDR      r1,|L19.112|
000048  ea414080          ORR      r0,r1,r0,LSL #18      ;114
00004c  9002              STR      r0,[sp,#8]            ;114
00004e  2002              MOVS     r0,#2                 ;117
000050  f88d000c          STRB     r0,[sp,#0xc]          ;117
000054  f7fffffe          BL       apiSysParGetHwVersion
000058  9001              STR      r0,[sp,#4]            ;118
00005a  f89d0004          LDRB     r0,[sp,#4]            ;119
00005e  f88d000d          STRB     r0,[sp,#0xd]          ;119
000062  f89d0005          LDRB     r0,[sp,#5]            ;120
000066  f88d000e          STRB     r0,[sp,#0xe]          ;120
00006a  e7e5              B        |L19.56|
;;;139    
                          ENDP

                  |L19.108|
                          DCD      0x06000001
                  |L19.112|
                          DCD      0x06000401

                          AREA ||i.DavinciCanParameterInsulationResistance||, CODE, READONLY, ALIGN=2

                  DavinciCanParameterInsulationResistance PROC
;;;496    
;;;497    static void DavinciCanParameterInsulationResistance(smp_can_package_t *pCanPkg)
000000  b510              PUSH     {r4,lr}
;;;498    {
000002  b088              SUB      sp,sp,#0x20
000004  4604              MOV      r4,r0
;;;499    	smp_can_package_t	CanPkg;
;;;500    	tScuProtectPar		ProtectPar;
;;;501    		
;;;502    	if(SMP_CAN_GET_OBJ_INDEX(pCanPkg->id) == SMP_CMD_PAR_RD_OBJ_INDEX)
000006  6820              LDR      r0,[r4,#0]
000008  f3c02087          UBFX     r0,r0,#10,#8
00000c  2801              CMP      r0,#1
00000e  d018              BEQ      |L20.66|
;;;503    	{
;;;504    		CanPkg.id = MAKE_SMP_CAN_ID(SMP_CAN_FUN_CMD_TX, canParScuId(),
;;;505    									SMP_CMD_PAR_RD_OBJ_INDEX,
;;;506    									SMP_PAR_ID_INSULATION_RESISTANCE);
;;;507    		CanPkg.dlc = 2;
;;;508    		
;;;509    		apiSysParGetInsulationResistance(&ProtectPar);
;;;510    		CanPkg.dat[0] = ProtectPar.SetValue.b[0];
;;;511    		CanPkg.dat[1] = ProtectPar.STime.b[0];
;;;512    		appSerialCanDavinciParDebugMsg("Read I.R.");			
;;;513    	}
;;;514    	else if(isParWritable())
000010  f7fffffe          BL       isParWritable
000014  2800              CMP      r0,#0
000016  d012              BEQ      |L20.62|
;;;515    	{
;;;516    		CanPkg.id = MAKE_SMP_CAN_ID(SMP_CAN_FUN_CMD_TX, canParScuId(),
000018  f7fffffe          BL       appProjectGetScuId
00001c  4913              LDR      r1,|L20.108|
00001e  ea414080          ORR      r0,r1,r0,LSL #18
000022  9004              STR      r0,[sp,#0x10]
;;;517    									SMP_CMD_PAR_WR_OBJ_INDEX,
;;;518    									SMP_PAR_ID_INSULATION_RESISTANCE);																		
;;;519    		CanPkg.dlc = 0;
000024  2000              MOVS     r0,#0
000026  f88d0014          STRB     r0,[sp,#0x14]
;;;520    		ProtectPar.SetValue.l = pCanPkg->dat[0];
00002a  7960              LDRB     r0,[r4,#5]
00002c  9000              STR      r0,[sp,#0]
;;;521    		ProtectPar.STime.l = pCanPkg->dat[1];
00002e  79a0              LDRB     r0,[r4,#6]
000030  9001              STR      r0,[sp,#4]
;;;522    		apiSysParSetInsulationResistance(&ProtectPar);
000032  4668              MOV      r0,sp
000034  f7fffffe          BL       apiSysParSetInsulationResistance
                  |L20.56|
;;;523    		appSerialCanDavinciParDebugMsg("Write I.R.");			
;;;524    	}
;;;525    	else
;;;526    		return;
;;;527    	appSerialCanDavinciPutPkgToCanFifo(&CanPkg);	
000038  a804              ADD      r0,sp,#0x10
00003a  f7fffffe          BL       appSerialCanDavinciPutPkgToCanFifo
                  |L20.62|
;;;528    } 
00003e  b008              ADD      sp,sp,#0x20
000040  bd10              POP      {r4,pc}
                  |L20.66|
000042  f7fffffe          BL       appProjectGetScuId
000046  490a              LDR      r1,|L20.112|
000048  ea414080          ORR      r0,r1,r0,LSL #18      ;504
00004c  9004              STR      r0,[sp,#0x10]         ;504
00004e  2002              MOVS     r0,#2                 ;507
000050  f88d0014          STRB     r0,[sp,#0x14]         ;507
000054  4668              MOV      r0,sp                 ;509
000056  f7fffffe          BL       apiSysParGetInsulationResistance
00005a  f89d0000          LDRB     r0,[sp,#0]            ;510
00005e  f88d0015          STRB     r0,[sp,#0x15]         ;510
000062  f89d0004          LDRB     r0,[sp,#4]            ;511
000066  f88d0016          STRB     r0,[sp,#0x16]         ;511
00006a  e7e5              B        |L20.56|
;;;529    
                          ENDP

                  |L20.108|
                          DCD      0x06000038
                  |L20.112|
                          DCD      0x06000438

                          AREA ||i.DavinciCanParameterNoteMessage||, CODE, READONLY, ALIGN=2

                  DavinciCanParameterNoteMessage PROC
;;;1342   
;;;1343   static void DavinciCanParameterNoteMessage(smp_can_package_t *pCanPkg)
000000  e92d41ff          PUSH     {r0-r8,lr}
;;;1344   {
000004  4604              MOV      r4,r0
;;;1345   	uint32_t		canid;	
;;;1346   	uint8_t			cansendbf[8];
;;;1347   	uint8_t			canDatLeng = 0;
;;;1348   	uint8_t			i,index;
;;;1349   	uint8_t			NoteLen;
;;;1350   	smp_can_package_t	CanPkg;
;;;1351   	tScuProtectPar		ProtectPar;
;;;1352   
;;;1353   	if(SMP_CAN_GET_OBJ_INDEX(pCanPkg->id) == SMP_CMD_PAR_RD_OBJ_INDEX)
;;;1354   	{
;;;1355   		appSerialCanDavinciParDebugMsg("Read Note");
;;;1356   		
;;;1357   		apiSysParGetNotwMessageString(StringMessageBuffer);
000006  4d41              LDR      r5,|L21.268|
000008  6820              LDR      r0,[r4,#0]            ;1353
;;;1358   		NoteLen = strlen((char *)StringMessageBuffer);		
;;;1359   		CanPkg.dat[0] = (NoteLen/6);
;;;1360   		if(NoteLen % 6)
;;;1361   			CanPkg.dat[0]++;
;;;1362   		CanPkg.dat[1] = 1;
00000a  2701              MOVS     r7,#1
00000c  f3c02087          UBFX     r0,r0,#10,#8          ;1353
000010  2801              CMP      r0,#1                 ;1353
000012  d00a              BEQ      |L21.42|
;;;1363   		
;;;1364   		CanPkg.id = MAKE_SMP_CAN_ID(SMP_CAN_FUN_CMD_TX, canParScuId(),
;;;1365   									SMP_CMD_PAR_RD_OBJ_INDEX,
;;;1366   									SMP_PAR_ID_NOTE_MESSAGE);
;;;1367   		index = 0;
;;;1368   		do{
;;;1369   			canDatLeng = NoteLen - index;	
;;;1370   			if(canDatLeng >6)
;;;1371   				canDatLeng = 6;
;;;1372   			for(i=0; i<canDatLeng; i++) 
;;;1373   				CanPkg.dat[2 + i] = StringMessageBuffer[index++];
;;;1374   			CanPkg.dlc = canDatLeng + 2;	
;;;1375   			appSerialCanDavinciPutPkgToCanFifo(&CanPkg);
;;;1376   			CanPkg.dat[1] ++;
;;;1377   		}while(index < NoteLen);				
;;;1378   	}
;;;1379   	else if(isParWritable())
000014  f7fffffe          BL       isParWritable
000018  2800              CMP      r0,#0
00001a  d042              BEQ      |L21.162|
;;;1380   	{
;;;1381   		appSerialCanDavinciParDebugMsg("Write Note Message");
;;;1382   		if(pCanPkg->dat[1] == 0x00)
00001c  79a0              LDRB     r0,[r4,#6]
00001e  2800              CMP      r0,#0
000020  d03f              BEQ      |L21.162|
;;;1383   			return;
;;;1384   		if(pCanPkg->dat[1] ==0x01)
000022  2600              MOVS     r6,#0
000024  2801              CMP      r0,#1
000026  d03e              BEQ      |L21.166|
000028  e043              B        |L21.178|
                  |L21.42|
00002a  4838              LDR      r0,|L21.268|
00002c  f7fffffe          BL       apiSysParGetNotwMessageString
000030  4836              LDR      r0,|L21.268|
000032  f7fffffe          BL       strlen
000036  b2c6              UXTB     r6,r0                 ;1358
000038  2006              MOVS     r0,#6                 ;1359
00003a  fbb6f1f0          UDIV     r1,r6,r0              ;1359
00003e  f88d1005          STRB     r1,[sp,#5]            ;1359
000042  fbb6f2f0          UDIV     r2,r6,r0              ;1360
000046  fb006012          MLS      r0,r0,r2,r6           ;1360
00004a  b110              CBZ      r0,|L21.82|
00004c  1c49              ADDS     r1,r1,#1              ;1361
00004e  f88d1005          STRB     r1,[sp,#5]            ;1361
                  |L21.82|
000052  f88d7006          STRB     r7,[sp,#6]            ;1362
000056  f7fffffe          BL       appProjectGetScuId
00005a  492d              LDR      r1,|L21.272|
00005c  ea414080          ORR      r0,r1,r0,LSL #18      ;1364
000060  9000              STR      r0,[sp,#0]            ;1364
000062  2400              MOVS     r4,#0                 ;1367
                  |L21.100|
000064  1b30              SUBS     r0,r6,r4              ;1369
000066  b2c1              UXTB     r1,r0                 ;1369
000068  2906              CMP      r1,#6                 ;1370
00006a  d900              BLS      |L21.110|
00006c  2106              MOVS     r1,#6                 ;1371
                  |L21.110|
00006e  2000              MOVS     r0,#0                 ;1372
000070  466a              MOV      r2,sp                 ;1350
000072  e007              B        |L21.132|
                  |L21.116|
000074  4623              MOV      r3,r4                 ;1373
000076  1c64              ADDS     r4,r4,#1              ;1373
000078  1817              ADDS     r7,r2,r0              ;1373
00007a  5ceb              LDRB     r3,[r5,r3]            ;1373
00007c  b2e4              UXTB     r4,r4                 ;1373
00007e  71fb              STRB     r3,[r7,#7]            ;1373
000080  1c40              ADDS     r0,r0,#1              ;1372
000082  b2c0              UXTB     r0,r0                 ;1372
                  |L21.132|
000084  4288              CMP      r0,r1                 ;1372
000086  d3f5              BCC      |L21.116|
000088  1c89              ADDS     r1,r1,#2              ;1374
00008a  f88d1004          STRB     r1,[sp,#4]            ;1374
00008e  4668              MOV      r0,sp                 ;1375
000090  f7fffffe          BL       appSerialCanDavinciPutPkgToCanFifo
000094  f89d0006          LDRB     r0,[sp,#6]            ;1376
000098  1c40              ADDS     r0,r0,#1              ;1376
00009a  f88d0006          STRB     r0,[sp,#6]            ;1376
00009e  42b4              CMP      r4,r6                 ;1377
0000a0  d3e0              BCC      |L21.100|
                  |L21.162|
;;;1385   		{
;;;1386   			for(i=0; i<MAX_NOTE_MESSAGE_STRING_ITEM; i++)
;;;1387   				StringMessageBuffer[i] = 0;	
;;;1388   		}
;;;1389   		index = pCanPkg->dat[1] - 1;
;;;1390   		index *= 6;
;;;1391   		for(i=2; i<pCanPkg->dlc; i++)
;;;1392   		{
;;;1393   			if(index >= MAX_NOTE_MESSAGE_STRING_ITEM)
;;;1394   				break;
;;;1395   			StringMessageBuffer[index++] = pCanPkg->dat[i];
;;;1396   		} 		
;;;1397   		if(pCanPkg->dat[1] >= pCanPkg->dat[0])
;;;1398   		{
;;;1399   			apiSysParSetNotwMessageString(StringMessageBuffer);
;;;1400   			CanPkg.dat[0] = 0;
;;;1401   		}
;;;1402   		else
;;;1403   			CanPkg.dat[0] = 1;
;;;1404   		CanPkg.dlc = 1;
;;;1405   		CanPkg.id = MAKE_SMP_CAN_ID(SMP_CAN_FUN_CMD_TX, canParScuId(),
;;;1406   									SMP_CMD_PAR_WR_OBJ_INDEX,
;;;1407   									SMP_PAR_ID_NOTE_MESSAGE);
;;;1408   
;;;1409   		appSerialCanDavinciPutPkgToCanFifo(&CanPkg);
;;;1410   	}
;;;1411   	else
;;;1412   		return;
;;;1413   }
0000a2  e8bd81ff          POP      {r0-r8,pc}
                  |L21.166|
0000a6  2000              MOVS     r0,#0                 ;1386
                  |L21.168|
0000a8  542e              STRB     r6,[r5,r0]            ;1387
0000aa  1c40              ADDS     r0,r0,#1              ;1386
0000ac  b2c0              UXTB     r0,r0                 ;1386
0000ae  2864              CMP      r0,#0x64              ;1386
0000b0  d3fa              BCC      |L21.168|
                  |L21.178|
0000b2  79a0              LDRB     r0,[r4,#6]            ;1389
0000b4  1e40              SUBS     r0,r0,#1              ;1389
0000b6  eb000040          ADD      r0,r0,r0,LSL #1       ;1390
0000ba  0640              LSLS     r0,r0,#25             ;1390
0000bc  0e01              LSRS     r1,r0,#24             ;1390
0000be  2002              MOVS     r0,#2                 ;1391
0000c0  e009              B        |L21.214|
                  |L21.194|
0000c2  2964              CMP      r1,#0x64              ;1393
0000c4  d20a              BCS      |L21.220|
0000c6  1822              ADDS     r2,r4,r0              ;1395
0000c8  7953              LDRB     r3,[r2,#5]            ;1395
0000ca  460a              MOV      r2,r1                 ;1395
0000cc  1c49              ADDS     r1,r1,#1              ;1395
0000ce  b2c9              UXTB     r1,r1                 ;1395
0000d0  54ab              STRB     r3,[r5,r2]            ;1395
0000d2  1c40              ADDS     r0,r0,#1              ;1391
0000d4  b2c0              UXTB     r0,r0                 ;1391
                  |L21.214|
0000d6  7922              LDRB     r2,[r4,#4]            ;1391
0000d8  4282              CMP      r2,r0                 ;1391
0000da  d8f2              BHI      |L21.194|
                  |L21.220|
0000dc  79a0              LDRB     r0,[r4,#6]            ;1397
0000de  7961              LDRB     r1,[r4,#5]            ;1397
0000e0  4288              CMP      r0,r1                 ;1397
0000e2  d305              BCC      |L21.240|
0000e4  4809              LDR      r0,|L21.268|
0000e6  f7fffffe          BL       apiSysParSetNotwMessageString
0000ea  f88d6005          STRB     r6,[sp,#5]            ;1400
0000ee  e001              B        |L21.244|
                  |L21.240|
0000f0  f88d7005          STRB     r7,[sp,#5]            ;1403
                  |L21.244|
0000f4  f88d7004          STRB     r7,[sp,#4]            ;1404
0000f8  f7fffffe          BL       appProjectGetScuId
0000fc  4905              LDR      r1,|L21.276|
0000fe  ea414080          ORR      r0,r1,r0,LSL #18      ;1405
000102  9000              STR      r0,[sp,#0]            ;1405
000104  4668              MOV      r0,sp                 ;1409
000106  f7fffffe          BL       appSerialCanDavinciPutPkgToCanFifo
00010a  e7ca              B        |L21.162|
;;;1414   
                          ENDP

                  |L21.268|
                          DCD      ||.bss||
                  |L21.272|
                          DCD      0x0600040a
                  |L21.276|
                          DCD      0x0600000a

                          AREA ||i.DavinciCanParameterOcvTable||, CODE, READONLY, ALIGN=2

                  DavinciCanParameterOcvTable PROC
;;;601                        			
;;;602    static void DavinciCanParameterOcvTable(smp_can_package_t *pCanPkg)
000000  b510              PUSH     {r4,lr}
;;;603    {
000002  b086              SUB      sp,sp,#0x18
000004  4604              MOV      r4,r0
;;;604    	
;;;605    	smp_can_package_t	CanPkg;
;;;606    	tOcvRaTable			OcvTable;
;;;607    
;;;608    	if(SMP_CAN_GET_OBJ_INDEX(pCanPkg->id) == SMP_CMD_PAR_RD_OBJ_INDEX)
000006  6820              LDR      r0,[r4,#0]
000008  f3c02087          UBFX     r0,r0,#10,#8
00000c  2801              CMP      r0,#1
00000e  d01e              BEQ      |L22.78|
;;;609    	{
;;;610    		CanPkg.id = MAKE_SMP_CAN_ID(SMP_CAN_FUN_CMD_TX, canParScuId(),
;;;611    									SMP_CMD_PAR_RD_OBJ_INDEX,
;;;612    									SMP_PAR_ID_OCV_TABLE);
;;;613    		CanPkg.dlc = 5;
;;;614    		apiSysParGetOcvTable(pCanPkg->dat[1], &OcvTable);
;;;615    		CanPkg.dat[0] = pCanPkg->dat[0];
;;;616    		CanPkg.dat[1] = pCanPkg->dat[1];
;;;617    		CanPkg.dat[2] = OcvTable.Level;
;;;618    		CanPkg.dat[3] = OcvTable.Value % 0x100;
;;;619    		CanPkg.dat[4] = OcvTable.Value / 0x100;		
;;;620    		
;;;621    		appSerialCanDavinciParDebugMsg("Read Ocv Table");
;;;622    	}
;;;623    	else if(isParWritable())
000010  f7fffffe          BL       isParWritable
000014  2800              CMP      r0,#0
000016  d018              BEQ      |L22.74|
;;;624    	{
;;;625    		CanPkg.id = MAKE_SMP_CAN_ID(SMP_CAN_FUN_CMD_TX, canParScuId(),
000018  f7fffffe          BL       appProjectGetScuId
00001c  491b              LDR      r1,|L22.140|
00001e  ea414080          ORR      r0,r1,r0,LSL #18
000022  9002              STR      r0,[sp,#8]
;;;626    									SMP_CMD_PAR_WR_OBJ_INDEX,
;;;627    									SMP_PAR_ID_OCV_TABLE);
;;;628    		CanPkg.dlc = 0;
000024  2000              MOVS     r0,#0
000026  f88d000c          STRB     r0,[sp,#0xc]
;;;629    
;;;630    
;;;631    		OcvTable.Level = pCanPkg->dat[2];
00002a  79e0              LDRB     r0,[r4,#7]
00002c  f88d0004          STRB     r0,[sp,#4]
;;;632    		OcvTable.Value = GET_WORD(&pCanPkg->dat[3]);
000030  7a20              LDRB     r0,[r4,#8]
000032  7a61              LDRB     r1,[r4,#9]
000034  eb002001          ADD      r0,r0,r1,LSL #8
000038  f8ad0006          STRH     r0,[sp,#6]
;;;633    		apiSysParSetOcvTable(pCanPkg->dat[1], &OcvTable);
00003c  79a0              LDRB     r0,[r4,#6]
00003e  a901              ADD      r1,sp,#4
000040  f7fffffe          BL       apiSysParSetOcvTable
                  |L22.68|
;;;634    		
;;;635    		appSerialCanDavinciParDebugMsg("Write Ocv Table");
;;;636    	}
;;;637    	else
;;;638    		return;
;;;639    	appSerialCanDavinciPutPkgToCanFifo(&CanPkg);	
000044  a802              ADD      r0,sp,#8
000046  f7fffffe          BL       appSerialCanDavinciPutPkgToCanFifo
                  |L22.74|
;;;640    }
00004a  b006              ADD      sp,sp,#0x18
00004c  bd10              POP      {r4,pc}
                  |L22.78|
00004e  f7fffffe          BL       appProjectGetScuId
000052  490f              LDR      r1,|L22.144|
000054  ea414080          ORR      r0,r1,r0,LSL #18      ;610
000058  9002              STR      r0,[sp,#8]            ;610
00005a  2005              MOVS     r0,#5                 ;613
00005c  f88d000c          STRB     r0,[sp,#0xc]          ;613
000060  79a0              LDRB     r0,[r4,#6]            ;614
000062  a901              ADD      r1,sp,#4              ;614
000064  f7fffffe          BL       apiSysParGetOcvTable
000068  7960              LDRB     r0,[r4,#5]            ;615
00006a  f88d000d          STRB     r0,[sp,#0xd]          ;615
00006e  79a0              LDRB     r0,[r4,#6]            ;616
000070  f88d000e          STRB     r0,[sp,#0xe]          ;616
000074  f89d0004          LDRB     r0,[sp,#4]            ;617
000078  f88d000f          STRB     r0,[sp,#0xf]          ;617
00007c  f8bd0006          LDRH     r0,[sp,#6]            ;618
000080  f88d0010          STRB     r0,[sp,#0x10]         ;618
000084  0a00              LSRS     r0,r0,#8              ;619
000086  f88d0011          STRB     r0,[sp,#0x11]         ;619
00008a  e7db              B        |L22.68|
;;;641    
                          ENDP

                  |L22.140|
                          DCD      0x060000a1
                  |L22.144|
                          DCD      0x060004a1

                          AREA ||i.DavinciCanParameterOvp||, CODE, READONLY, ALIGN=2

                  DavinciCanParameterOvp PROC
;;;681    //Protect
;;;682    static void DavinciCanParameterOvp(smp_can_package_t *pCanPkg)
000000  b510              PUSH     {r4,lr}
;;;683    {
000002  b088              SUB      sp,sp,#0x20
000004  4604              MOV      r4,r0
;;;684    	smp_can_package_t	CanPkg;
;;;685    	tScuProtectPar		ProtectPar;
;;;686    
;;;687    	if(SMP_CAN_GET_OBJ_INDEX(pCanPkg->id) == SMP_CMD_PAR_RD_OBJ_INDEX)
000006  6820              LDR      r0,[r4,#0]
000008  f3c02087          UBFX     r0,r0,#10,#8
00000c  2801              CMP      r0,#1
00000e  d023              BEQ      |L23.88|
;;;688    	{
;;;689    		CanPkg.id = MAKE_SMP_CAN_ID(SMP_CAN_FUN_CMD_TX, canParScuId(),
;;;690    									SMP_CMD_PAR_RD_OBJ_INDEX,
;;;691    									SMP_PAR_ID_OVP_PROTECT);
;;;692    				
;;;693    		CanPkg.dlc = 7;
;;;694    		CanPkg.dat[0] = pCanPkg->dat[0];		
;;;695    		apiSysParGetOvpPar(pCanPkg->dat[0], &ProtectPar);
;;;696    		CanPkg.dat[1] = ProtectPar.SetValue.b[0];
;;;697    		CanPkg.dat[2] = ProtectPar.SetValue.b[1];
;;;698    		CanPkg.dat[3] = ProtectPar.STime.b[0];
;;;699    		CanPkg.dat[4] = ProtectPar.RelValue.b[0];
;;;700    		CanPkg.dat[5] = ProtectPar.RelValue.b[1];
;;;701    		CanPkg.dat[6] = ProtectPar.RTime.b[0];
;;;702    
;;;703    		appSerialCanDavinciParDebugMsg("Read Ovp");
;;;704    	}
;;;705    	else if(isParWritable())
000010  f7fffffe          BL       isParWritable
000014  2800              CMP      r0,#0
000016  d01d              BEQ      |L23.84|
;;;706    	{
;;;707    		CanPkg.id = MAKE_SMP_CAN_ID(SMP_CAN_FUN_CMD_TX, canParScuId(),
000018  f7fffffe          BL       appProjectGetScuId
00001c  4923              LDR      r1,|L23.172|
00001e  ea414080          ORR      r0,r1,r0,LSL #18
000022  9004              STR      r0,[sp,#0x10]
;;;708    									SMP_CMD_PAR_WR_OBJ_INDEX,
;;;709    									SMP_PAR_ID_OVP_PROTECT);
;;;710    		CanPkg.dlc = 0;
000024  2000              MOVS     r0,#0
000026  f88d0014          STRB     r0,[sp,#0x14]
;;;711    		ProtectPar.SetValue.l = GET_WORD(&pCanPkg->dat[1]);
00002a  79a0              LDRB     r0,[r4,#6]
00002c  79e1              LDRB     r1,[r4,#7]
00002e  eb002001          ADD      r0,r0,r1,LSL #8
000032  9000              STR      r0,[sp,#0]
;;;712    		ProtectPar.STime.l = pCanPkg->dat[3];
000034  7a20              LDRB     r0,[r4,#8]
000036  9001              STR      r0,[sp,#4]
;;;713    		ProtectPar.RelValue.l = GET_WORD(&pCanPkg->dat[4]);
000038  7a60              LDRB     r0,[r4,#9]
00003a  7aa1              LDRB     r1,[r4,#0xa]
00003c  eb002001          ADD      r0,r0,r1,LSL #8
000040  9002              STR      r0,[sp,#8]
;;;714    		ProtectPar.RTime.l = pCanPkg->dat[6];
000042  7ae0              LDRB     r0,[r4,#0xb]
000044  9003              STR      r0,[sp,#0xc]
;;;715    
;;;716    		apiSysParSetOvpPar(pCanPkg->dat[0], &ProtectPar);
000046  7960              LDRB     r0,[r4,#5]
000048  4669              MOV      r1,sp
00004a  f7fffffe          BL       apiSysParSetOvpPar
                  |L23.78|
;;;717    		appSerialCanDavinciParDebugMsg("Write Ovp");
;;;718    	}
;;;719    	else
;;;720    		return;
;;;721    	appSerialCanDavinciPutPkgToCanFifo(&CanPkg);
00004e  a804              ADD      r0,sp,#0x10
000050  f7fffffe          BL       appSerialCanDavinciPutPkgToCanFifo
                  |L23.84|
;;;722    }
000054  b008              ADD      sp,sp,#0x20
000056  bd10              POP      {r4,pc}
                  |L23.88|
000058  f7fffffe          BL       appProjectGetScuId
00005c  4914              LDR      r1,|L23.176|
00005e  ea414080          ORR      r0,r1,r0,LSL #18      ;689
000062  9004              STR      r0,[sp,#0x10]         ;689
000064  2007              MOVS     r0,#7                 ;693
000066  f88d0014          STRB     r0,[sp,#0x14]         ;693
00006a  7960              LDRB     r0,[r4,#5]            ;694
00006c  f88d0015          STRB     r0,[sp,#0x15]         ;694
000070  7960              LDRB     r0,[r4,#5]            ;695
000072  4669              MOV      r1,sp                 ;695
000074  f7fffffe          BL       apiSysParGetOvpPar
000078  f89d0000          LDRB     r0,[sp,#0]            ;696
00007c  f88d0016          STRB     r0,[sp,#0x16]         ;696
000080  f89d0001          LDRB     r0,[sp,#1]            ;697
000084  f88d0017          STRB     r0,[sp,#0x17]         ;697
000088  f89d0004          LDRB     r0,[sp,#4]            ;698
00008c  f88d0018          STRB     r0,[sp,#0x18]         ;698
000090  f89d0008          LDRB     r0,[sp,#8]            ;699
000094  f88d0019          STRB     r0,[sp,#0x19]         ;699
000098  f89d0009          LDRB     r0,[sp,#9]            ;700
00009c  f88d001a          STRB     r0,[sp,#0x1a]         ;700
0000a0  f89d000c          LDRB     r0,[sp,#0xc]          ;701
0000a4  f88d001b          STRB     r0,[sp,#0x1b]         ;701
0000a8  e7d1              B        |L23.78|
;;;723    static void DavinciCanParameterUvp(smp_can_package_t *pCanPkg)
                          ENDP

0000aa  0000              DCW      0x0000
                  |L23.172|
                          DCD      0x06000060
                  |L23.176|
                          DCD      0x06000460

                          AREA ||i.DavinciCanParameterPF||, CODE, READONLY, ALIGN=2

                  DavinciCanParameterPF PROC
;;;1048   
;;;1049   static void DavinciCanParameterPF(smp_can_package_t *pCanPkg)
000000  b510              PUSH     {r4,lr}
;;;1050   {
000002  b088              SUB      sp,sp,#0x20
000004  4604              MOV      r4,r0
;;;1051   	smp_can_package_t	CanPkg;
;;;1052   	tScuProtectPar		ProtectPar;
;;;1053   
;;;1054   	if(SMP_CAN_GET_OBJ_INDEX(pCanPkg->id) == SMP_CMD_PAR_RD_OBJ_INDEX)
000006  6820              LDR      r0,[r4,#0]
000008  f3c02087          UBFX     r0,r0,#10,#8
00000c  2801              CMP      r0,#1
00000e  d01b              BEQ      |L24.72|
;;;1055   	{
;;;1056   		CanPkg.id = MAKE_SMP_CAN_ID(SMP_CAN_FUN_CMD_TX, canParScuId(),
;;;1057   									SMP_CMD_PAR_RD_OBJ_INDEX,
;;;1058   									SMP_PAR_ID_PF_PROTECT);				
;;;1059   		CanPkg.dlc = 4;
;;;1060   		CanPkg.dat[0] = pCanPkg->dat[0];		
;;;1061   		if(CanPkg.dat[0] == 0)
;;;1062   		{
;;;1063   			apiSysParGetOvpPfPar(&ProtectPar);
;;;1064   			appSerialCanDavinciParDebugMsg("Read OVF PF");
;;;1065   		}
;;;1066   		else if(CanPkg.dat[0] == 1)
;;;1067   		{
;;;1068   			apiSysParGetUvpPfPar(&ProtectPar);
;;;1069   			appSerialCanDavinciParDebugMsg("Read UVF PF");
;;;1070   		}
;;;1071   		CanPkg.dat[1] = ProtectPar.SetValue.b[0];
;;;1072   		CanPkg.dat[2] = ProtectPar.SetValue.b[1];
;;;1073   		CanPkg.dat[3] = ProtectPar.STime.b[0];
;;;1074   	}
;;;1075   	else if(isParWritable())
000010  f7fffffe          BL       isParWritable
000014  2800              CMP      r0,#0
000016  d045              BEQ      |L24.164|
;;;1076   	{
;;;1077   		CanPkg.id = MAKE_SMP_CAN_ID(SMP_CAN_FUN_CMD_TX, canParScuId(),
000018  f7fffffe          BL       appProjectGetScuId
00001c  4922              LDR      r1,|L24.168|
00001e  ea414080          ORR      r0,r1,r0,LSL #18
000022  9004              STR      r0,[sp,#0x10]
;;;1078   									SMP_CMD_PAR_WR_OBJ_INDEX,
;;;1079   									SMP_PAR_ID_PF_PROTECT);
;;;1080   		CanPkg.dlc = 1;
000024  2001              MOVS     r0,#1
000026  f88d0014          STRB     r0,[sp,#0x14]
;;;1081   		CanPkg.dat[0] = pCanPkg->dat[0];
00002a  7960              LDRB     r0,[r4,#5]
00002c  f88d0015          STRB     r0,[sp,#0x15]
;;;1082   		ProtectPar.SetValue.l = GET_WORD(&pCanPkg->dat[1]);
000030  79a0              LDRB     r0,[r4,#6]
000032  79e1              LDRB     r1,[r4,#7]
000034  eb002001          ADD      r0,r0,r1,LSL #8
000038  9000              STR      r0,[sp,#0]
;;;1083   		ProtectPar.STime.l = pCanPkg->dat[3];
00003a  7a20              LDRB     r0,[r4,#8]
00003c  9001              STR      r0,[sp,#4]
;;;1084   
;;;1085   		if(pCanPkg->dat[0] == 0)
00003e  7960              LDRB     r0,[r4,#5]
000040  b330              CBZ      r0,|L24.144|
;;;1086   		{
;;;1087   			apiSysParSetOvpPfPar(&ProtectPar);
;;;1088   			appSerialCanDavinciParDebugMsg("Write OVF PF");
;;;1089   		}
;;;1090   		else if(pCanPkg->dat[0] == 1)
000042  2801              CMP      r0,#1
000044  d028              BEQ      |L24.152|
000046  e02a              B        |L24.158|
                  |L24.72|
000048  f7fffffe          BL       appProjectGetScuId
00004c  4917              LDR      r1,|L24.172|
00004e  ea414080          ORR      r0,r1,r0,LSL #18      ;1056
000052  9004              STR      r0,[sp,#0x10]         ;1056
000054  2004              MOVS     r0,#4                 ;1059
000056  f88d0014          STRB     r0,[sp,#0x14]         ;1059
00005a  7960              LDRB     r0,[r4,#5]            ;1060
00005c  f88d0015          STRB     r0,[sp,#0x15]         ;1060
000060  b110              CBZ      r0,|L24.104|
000062  2801              CMP      r0,#1                 ;1066
000064  d004              BEQ      |L24.112|
000066  e006              B        |L24.118|
                  |L24.104|
000068  4668              MOV      r0,sp                 ;1063
00006a  f7fffffe          BL       apiSysParGetOvpPfPar
00006e  e002              B        |L24.118|
                  |L24.112|
000070  4668              MOV      r0,sp                 ;1068
000072  f7fffffe          BL       apiSysParGetUvpPfPar
                  |L24.118|
000076  f89d0000          LDRB     r0,[sp,#0]            ;1071
00007a  f88d0016          STRB     r0,[sp,#0x16]         ;1071
00007e  f89d0001          LDRB     r0,[sp,#1]            ;1072
000082  f88d0017          STRB     r0,[sp,#0x17]         ;1072
000086  f89d0004          LDRB     r0,[sp,#4]            ;1073
00008a  f88d0018          STRB     r0,[sp,#0x18]         ;1073
00008e  e006              B        |L24.158|
                  |L24.144|
000090  4668              MOV      r0,sp                 ;1087
000092  f7fffffe          BL       apiSysParSetOvpPfPar
000096  e002              B        |L24.158|
                  |L24.152|
;;;1091   		{
;;;1092   			apiSysParSetUvpPfPar(&ProtectPar);
000098  4668              MOV      r0,sp
00009a  f7fffffe          BL       apiSysParSetUvpPfPar
                  |L24.158|
;;;1093   			appSerialCanDavinciParDebugMsg("Write UVF PF");
;;;1094   		}
;;;1095   	}
;;;1096   	else
;;;1097   		return;
;;;1098   	appSerialCanDavinciPutPkgToCanFifo(&CanPkg);
00009e  a804              ADD      r0,sp,#0x10
0000a0  f7fffffe          BL       appSerialCanDavinciPutPkgToCanFifo
                  |L24.164|
;;;1099   }
0000a4  b008              ADD      sp,sp,#0x20
0000a6  bd10              POP      {r4,pc}
;;;1100   //---------------------------------
                          ENDP

                  |L24.168|
                          DCD      0x0600006b
                  |L24.172|
                          DCD      0x0600046b

                          AREA ||i.DavinciCanParameterPreDischargeTime||, CODE, READONLY, ALIGN=2

                  DavinciCanParameterPreDischargeTime PROC
;;;248    
;;;249    static void DavinciCanParameterPreDischargeTime(smp_can_package_t *pCanPkg)
000000  b510              PUSH     {r4,lr}
;;;250    {
000002  b086              SUB      sp,sp,#0x18
000004  4604              MOV      r4,r0
;;;251    	smp_can_package_t	CanPkg;
;;;252    	tIbyte	time;
;;;253    
;;;254    	if(SMP_CAN_GET_OBJ_INDEX(pCanPkg->id) == SMP_CMD_PAR_RD_OBJ_INDEX)
000006  6820              LDR      r0,[r4,#0]
000008  f3c02087          UBFX     r0,r0,#10,#8
00000c  2801              CMP      r0,#1
00000e  d01b              BEQ      |L25.72|
;;;255    	{
;;;256    		CanPkg.id = MAKE_SMP_CAN_ID(SMP_CAN_FUN_CMD_TX, canParScuId(),
;;;257    									SMP_CMD_PAR_RD_OBJ_INDEX,
;;;258    									SMP_PAR_ID_PRE_DHG_TIME);
;;;259    		CanPkg.dlc = 2;
;;;260    		time.i = apiSysParGetPreDischargeTime();
;;;261    		CanPkg.dat[0] = time.b[0];
;;;262    		CanPkg.dat[1] = time.b[1];
;;;263    	}
;;;264    	else if(isParWritable())
000010  f7fffffe          BL       isParWritable
000014  2800              CMP      r0,#0
000016  d015              BEQ      |L25.68|
;;;265    	{
;;;266    		CanPkg.id = MAKE_SMP_CAN_ID(SMP_CAN_FUN_CMD_TX, canParScuId(),
000018  f7fffffe          BL       appProjectGetScuId
00001c  4915              LDR      r1,|L25.116|
00001e  ea414080          ORR      r0,r1,r0,LSL #18
000022  9002              STR      r0,[sp,#8]
;;;267    									SMP_CMD_PAR_WR_OBJ_INDEX,
;;;268    									SMP_PAR_ID_PRE_DHG_TIME);
;;;269    									
;;;270    		CanPkg.dlc = 0;
000024  2000              MOVS     r0,#0
000026  f88d000c          STRB     r0,[sp,#0xc]
;;;271    		time.b[0] = pCanPkg->dat[0];
00002a  7960              LDRB     r0,[r4,#5]
00002c  f88d0004          STRB     r0,[sp,#4]
;;;272    		time.b[1] = pCanPkg->dat[1];
000030  79a0              LDRB     r0,[r4,#6]
000032  f88d0005          STRB     r0,[sp,#5]
;;;273    		apiSysParSetPreDischargeTime(time.i);
000036  f8bd0004          LDRH     r0,[sp,#4]
00003a  f7fffffe          BL       apiSysParSetPreDischargeTime
                  |L25.62|
;;;274    	}
;;;275    	else
;;;276    		return;
;;;277    	appSerialCanDavinciPutPkgToCanFifo(&CanPkg);	
00003e  a802              ADD      r0,sp,#8
000040  f7fffffe          BL       appSerialCanDavinciPutPkgToCanFifo
                  |L25.68|
;;;278    }
000044  b006              ADD      sp,sp,#0x18
000046  bd10              POP      {r4,pc}
                  |L25.72|
000048  f7fffffe          BL       appProjectGetScuId
00004c  490a              LDR      r1,|L25.120|
00004e  ea414080          ORR      r0,r1,r0,LSL #18      ;256
000052  9002              STR      r0,[sp,#8]            ;256
000054  2002              MOVS     r0,#2                 ;259
000056  f88d000c          STRB     r0,[sp,#0xc]          ;259
00005a  f7fffffe          BL       apiSysParGetPreDischargeTime
00005e  9001              STR      r0,[sp,#4]            ;260
000060  f89d0004          LDRB     r0,[sp,#4]            ;261
000064  f88d000d          STRB     r0,[sp,#0xd]          ;261
000068  f89d0005          LDRB     r0,[sp,#5]            ;262
00006c  f88d000e          STRB     r0,[sp,#0xe]          ;262
000070  e7e5              B        |L25.62|
;;;279    
                          ENDP

000072  0000              DCW      0x0000
                  |L25.116|
                          DCD      0x06000022
                  |L25.120|
                          DCD      0x06000422

                          AREA ||i.DavinciCanParameterQmax||, CODE, READONLY, ALIGN=2

                  DavinciCanParameterQmax PROC
;;;531    
;;;532    static void DavinciCanParameterQmax(smp_can_package_t *pCanPkg)
000000  b510              PUSH     {r4,lr}
;;;533    {
000002  b086              SUB      sp,sp,#0x18
000004  4604              MOV      r4,r0
;;;534    	smp_can_package_t	CanPkg;
;;;535    	tLbyte	Lbyte;
;;;536    		
;;;537    	if(SMP_CAN_GET_OBJ_INDEX(pCanPkg->id) == SMP_CMD_PAR_RD_OBJ_INDEX)
000006  6820              LDR      r0,[r4,#0]
000008  f3c02087          UBFX     r0,r0,#10,#8
00000c  2801              CMP      r0,#1
00000e  d022              BEQ      |L26.86|
;;;538    	{
;;;539    		CanPkg.id = MAKE_SMP_CAN_ID(SMP_CAN_FUN_CMD_TX, canParScuId(),
;;;540    									SMP_CMD_PAR_RD_OBJ_INDEX,
;;;541    									SMP_PAR_ID_QMAX);
;;;542    		CanPkg.dlc = 4;
;;;543    		Lbyte.l = appGaugeGetQmax();
;;;544    		CanPkg.dat[0] = Lbyte.b[0];
;;;545    		CanPkg.dat[1] = Lbyte.b[1];
;;;546    		CanPkg.dat[2] = Lbyte.b[2];
;;;547    		CanPkg.dat[3] = Lbyte.b[3];
;;;548    		appSerialCanDavinciParDebugMsg("Read Qmax");
;;;549    	}
;;;550    	else if(isParWritable())
000010  f7fffffe          BL       isParWritable
000014  2800              CMP      r0,#0
000016  d01c              BEQ      |L26.82|
;;;551    	{
;;;552    		CanPkg.id = MAKE_SMP_CAN_ID(SMP_CAN_FUN_CMD_TX, canParScuId(),
000018  f7fffffe          BL       appProjectGetScuId
00001c  491c              LDR      r1,|L26.144|
00001e  ea414080          ORR      r0,r1,r0,LSL #18
000022  9002              STR      r0,[sp,#8]
;;;553    									SMP_CMD_PAR_WR_OBJ_INDEX,
;;;554    									SMP_PAR_ID_QMAX);																		
;;;555    		CanPkg.dlc = 0;
000024  2000              MOVS     r0,#0
000026  f88d000c          STRB     r0,[sp,#0xc]
;;;556    		Lbyte.l = GET_DWORD(&pCanPkg->dat[0]);
00002a  7960              LDRB     r0,[r4,#5]
00002c  7a21              LDRB     r1,[r4,#8]
00002e  79a2              LDRB     r2,[r4,#6]
000030  eb006001          ADD      r0,r0,r1,LSL #24
000034  79e1              LDRB     r1,[r4,#7]
000036  0409              LSLS     r1,r1,#16
000038  eb012102          ADD      r1,r1,r2,LSL #8
00003c  1844              ADDS     r4,r0,r1
00003e  9401              STR      r4,[sp,#4]
;;;557    		appGaugeSetQmax(Lbyte.l);
000040  4620              MOV      r0,r4
000042  f7fffffe          BL       appGaugeSetQmax
;;;558    		apiSysParSetQmax(Lbyte.l);
000046  4620              MOV      r0,r4
000048  f7fffffe          BL       apiSysParSetQmax
                  |L26.76|
;;;559    
;;;560    		appSerialCanDavinciParDebugMsg("write  Qmax");
;;;561    	}
;;;562    	else
;;;563    		return;
;;;564    	appSerialCanDavinciPutPkgToCanFifo(&CanPkg);	
00004c  a802              ADD      r0,sp,#8
00004e  f7fffffe          BL       appSerialCanDavinciPutPkgToCanFifo
                  |L26.82|
;;;565    }                   			          
000052  b006              ADD      sp,sp,#0x18
000054  bd10              POP      {r4,pc}
                  |L26.86|
000056  f7fffffe          BL       appProjectGetScuId
00005a  490e              LDR      r1,|L26.148|
00005c  ea414080          ORR      r0,r1,r0,LSL #18      ;539
000060  9002              STR      r0,[sp,#8]            ;539
000062  2004              MOVS     r0,#4                 ;542
000064  f88d000c          STRB     r0,[sp,#0xc]          ;542
000068  f7fffffe          BL       appGaugeGetQmax
00006c  9001              STR      r0,[sp,#4]            ;543
00006e  f89d0004          LDRB     r0,[sp,#4]            ;544
000072  f88d000d          STRB     r0,[sp,#0xd]          ;544
000076  f89d0005          LDRB     r0,[sp,#5]            ;545
00007a  f88d000e          STRB     r0,[sp,#0xe]          ;545
00007e  f89d0006          LDRB     r0,[sp,#6]            ;546
000082  f88d000f          STRB     r0,[sp,#0xf]          ;546
000086  f89d0007          LDRB     r0,[sp,#7]            ;547
00008a  f88d0010          STRB     r0,[sp,#0x10]         ;547
00008e  e7dd              B        |L26.76|
;;;566    
                          ENDP

                  |L26.144|
                          DCD      0x0600002b
                  |L26.148|
                          DCD      0x0600042b

                          AREA ||i.DavinciCanParameterRM||, CODE, READONLY, ALIGN=2

                  DavinciCanParameterRM PROC
;;;566    
;;;567    static void DavinciCanParameterRM(smp_can_package_t *pCanPkg)
000000  b510              PUSH     {r4,lr}
;;;568    {
000002  b086              SUB      sp,sp,#0x18
000004  4604              MOV      r4,r0
;;;569    	smp_can_package_t	CanPkg;
;;;570    	tLbyte	Lbyte;
;;;571    		
;;;572    	if(SMP_CAN_GET_OBJ_INDEX(pCanPkg->id) == SMP_CMD_PAR_RD_OBJ_INDEX)
000006  6820              LDR      r0,[r4,#0]
000008  f3c02087          UBFX     r0,r0,#10,#8
00000c  2801              CMP      r0,#1
00000e  d01e              BEQ      |L27.78|
;;;573    	{
;;;574    		CanPkg.id = MAKE_SMP_CAN_ID(SMP_CAN_FUN_CMD_TX, canParScuId(),
;;;575    									SMP_CMD_PAR_RD_OBJ_INDEX,
;;;576    									SMP_PAR_ID_RM);
;;;577    		CanPkg.dlc = 4;
;;;578    		Lbyte.l = appGaugeGetRM();
;;;579    		CanPkg.dat[0] = Lbyte.b[0];
;;;580    		CanPkg.dat[1] = Lbyte.b[1];
;;;581    		CanPkg.dat[2] = Lbyte.b[2];
;;;582    		CanPkg.dat[3] = Lbyte.b[3];
;;;583    		appSerialCanDavinciParDebugMsg("Read Rm");
;;;584    	}
;;;585    	else if(isParWritable())
000010  f7fffffe          BL       isParWritable
000014  2800              CMP      r0,#0
000016  d018              BEQ      |L27.74|
;;;586    	{
;;;587    		CanPkg.id = MAKE_SMP_CAN_ID(SMP_CAN_FUN_CMD_TX, canParScuId(),
000018  f7fffffe          BL       appProjectGetScuId
00001c  491a              LDR      r1,|L27.136|
00001e  ea414080          ORR      r0,r1,r0,LSL #18
000022  9002              STR      r0,[sp,#8]
;;;588    									SMP_CMD_PAR_WR_OBJ_INDEX,
;;;589    									SMP_PAR_ID_RM);																		
;;;590    		CanPkg.dlc = 0;
000024  2000              MOVS     r0,#0
000026  f88d000c          STRB     r0,[sp,#0xc]
;;;591    		Lbyte.l = GET_DWORD(&pCanPkg->dat[0]);
00002a  7960              LDRB     r0,[r4,#5]
00002c  7a21              LDRB     r1,[r4,#8]
00002e  79a2              LDRB     r2,[r4,#6]
000030  eb006001          ADD      r0,r0,r1,LSL #24
000034  79e1              LDRB     r1,[r4,#7]
000036  0409              LSLS     r1,r1,#16
000038  eb012102          ADD      r1,r1,r2,LSL #8
00003c  4408              ADD      r0,r0,r1
00003e  9001              STR      r0,[sp,#4]
;;;592    		appGaugeSetRM(Lbyte.l);
000040  f7fffffe          BL       appGaugeSetRM
                  |L27.68|
;;;593    
;;;594    		appSerialCanDavinciParDebugMsg("write Rm");
;;;595    	}
;;;596    	else
;;;597    		return;
;;;598    	appSerialCanDavinciPutPkgToCanFifo(&CanPkg);	
000044  a802              ADD      r0,sp,#8
000046  f7fffffe          BL       appSerialCanDavinciPutPkgToCanFifo
                  |L27.74|
;;;599    }   
00004a  b006              ADD      sp,sp,#0x18
00004c  bd10              POP      {r4,pc}
                  |L27.78|
00004e  f7fffffe          BL       appProjectGetScuId
000052  490e              LDR      r1,|L27.140|
000054  ea414080          ORR      r0,r1,r0,LSL #18      ;574
000058  9002              STR      r0,[sp,#8]            ;574
00005a  2004              MOVS     r0,#4                 ;577
00005c  f88d000c          STRB     r0,[sp,#0xc]          ;577
000060  f7fffffe          BL       appGaugeGetRM
000064  9001              STR      r0,[sp,#4]            ;578
000066  f89d0004          LDRB     r0,[sp,#4]            ;579
00006a  f88d000d          STRB     r0,[sp,#0xd]          ;579
00006e  f89d0005          LDRB     r0,[sp,#5]            ;580
000072  f88d000e          STRB     r0,[sp,#0xe]          ;580
000076  f89d0006          LDRB     r0,[sp,#6]            ;581
00007a  f88d000f          STRB     r0,[sp,#0xf]          ;581
00007e  f89d0007          LDRB     r0,[sp,#7]            ;582
000082  f88d0010          STRB     r0,[sp,#0x10]         ;582
000086  e7dd              B        |L27.68|
;;;600    
                          ENDP

                  |L27.136|
                          DCD      0x0600002d
                  |L27.140|
                          DCD      0x0600042d

                          AREA ||i.DavinciCanParameterRaTable||, CODE, READONLY, ALIGN=2

                  DavinciCanParameterRaTable PROC
;;;641    
;;;642    static void DavinciCanParameterRaTable(smp_can_package_t *pCanPkg){
000000  b510              PUSH     {r4,lr}
000002  b086              SUB      sp,sp,#0x18
000004  4604              MOV      r4,r0
;;;643    	
;;;644    	smp_can_package_t	CanPkg;
;;;645    	tOcvRaTable			OcvTable;
;;;646    
;;;647    	if(SMP_CAN_GET_OBJ_INDEX(pCanPkg->id) == SMP_CMD_PAR_RD_OBJ_INDEX)
000006  6820              LDR      r0,[r4,#0]
000008  f3c02087          UBFX     r0,r0,#10,#8
00000c  2801              CMP      r0,#1
00000e  d01e              BEQ      |L28.78|
;;;648    	{
;;;649    		CanPkg.id = MAKE_SMP_CAN_ID(SMP_CAN_FUN_CMD_TX, canParScuId(),
;;;650    									SMP_CMD_PAR_RD_OBJ_INDEX,
;;;651    									SMP_PAR_ID_RA_TABLE);
;;;652    		CanPkg.dlc = 5;
;;;653    		apiSysParGetRaTable(pCanPkg->dat[1], &OcvTable);
;;;654    		CanPkg.dat[0] = pCanPkg->dat[0];
;;;655    		CanPkg.dat[1] = pCanPkg->dat[1];
;;;656    		CanPkg.dat[2] = OcvTable.Level;
;;;657    		CanPkg.dat[3] = OcvTable.Value % 0x100;
;;;658    		CanPkg.dat[4] = OcvTable.Value / 0x100;		
;;;659    		
;;;660    		appSerialCanDavinciParDebugMsg("Read Ra Table");
;;;661    	}
;;;662    	else if(isParWritable())
000010  f7fffffe          BL       isParWritable
000014  2800              CMP      r0,#0
000016  d018              BEQ      |L28.74|
;;;663    	{
;;;664    		CanPkg.id = MAKE_SMP_CAN_ID(SMP_CAN_FUN_CMD_TX, canParScuId(),
000018  f7fffffe          BL       appProjectGetScuId
00001c  491b              LDR      r1,|L28.140|
00001e  ea414080          ORR      r0,r1,r0,LSL #18
000022  9002              STR      r0,[sp,#8]
;;;665    									SMP_CMD_PAR_WR_OBJ_INDEX,
;;;666    									SMP_PAR_ID_RA_TABLE);
;;;667    		CanPkg.dlc = 0;
000024  2000              MOVS     r0,#0
000026  f88d000c          STRB     r0,[sp,#0xc]
;;;668    
;;;669    
;;;670    		OcvTable.Level = pCanPkg->dat[2];
00002a  79e0              LDRB     r0,[r4,#7]
00002c  f88d0004          STRB     r0,[sp,#4]
;;;671    		OcvTable.Value = GET_WORD(&pCanPkg->dat[3]);
000030  7a20              LDRB     r0,[r4,#8]
000032  7a61              LDRB     r1,[r4,#9]
000034  eb002001          ADD      r0,r0,r1,LSL #8
000038  f8ad0006          STRH     r0,[sp,#6]
;;;672    		apiSysParSetRaTable(pCanPkg->dat[1], &OcvTable);
00003c  79a0              LDRB     r0,[r4,#6]
00003e  a901              ADD      r1,sp,#4
000040  f7fffffe          BL       apiSysParSetRaTable
                  |L28.68|
;;;673    		
;;;674    		appSerialCanDavinciParDebugMsg("Write Ra Table");
;;;675    	}
;;;676    	else
;;;677    		return;
;;;678    	appSerialCanDavinciPutPkgToCanFifo(&CanPkg);	
000044  a802              ADD      r0,sp,#8
000046  f7fffffe          BL       appSerialCanDavinciPutPkgToCanFifo
                  |L28.74|
;;;679    }
00004a  b006              ADD      sp,sp,#0x18
00004c  bd10              POP      {r4,pc}
                  |L28.78|
00004e  f7fffffe          BL       appProjectGetScuId
000052  490f              LDR      r1,|L28.144|
000054  ea414080          ORR      r0,r1,r0,LSL #18      ;649
000058  9002              STR      r0,[sp,#8]            ;649
00005a  2005              MOVS     r0,#5                 ;652
00005c  f88d000c          STRB     r0,[sp,#0xc]          ;652
000060  79a0              LDRB     r0,[r4,#6]            ;653
000062  a901              ADD      r1,sp,#4              ;653
000064  f7fffffe          BL       apiSysParGetRaTable
000068  7960              LDRB     r0,[r4,#5]            ;654
00006a  f88d000d          STRB     r0,[sp,#0xd]          ;654
00006e  79a0              LDRB     r0,[r4,#6]            ;655
000070  f88d000e          STRB     r0,[sp,#0xe]          ;655
000074  f89d0004          LDRB     r0,[sp,#4]            ;656
000078  f88d000f          STRB     r0,[sp,#0xf]          ;656
00007c  f8bd0006          LDRH     r0,[sp,#6]            ;657
000080  f88d0010          STRB     r0,[sp,#0x10]         ;657
000084  0a00              LSRS     r0,r0,#8              ;658
000086  f88d0011          STRB     r0,[sp,#0x11]         ;658
00008a  e7db              B        |L28.68|
;;;680    //---------------------------------
                          ENDP

                  |L28.140|
                          DCD      0x060000b1
                  |L28.144|
                          DCD      0x060004b1

                          AREA ||i.DavinciCanParameterRdWrite||, CODE, READONLY, ALIGN=2

                  DavinciCanParameterRdWrite PROC
;;;1768   
;;;1769   void DavinciCanParameterRdWrite(smp_can_package_t *pCanPkg){
000000  b570              PUSH     {r4-r6,lr}
000002  4606              MOV      r6,r0
;;;1770   	
;;;1771   	uint8_t	i,n;
;;;1772   	uint8_t cmdIndex;
;;;1773   	
;;;1774   //	char	str[100];
;;;1775   //	char	str1[100];
;;;1776    	cmdIndex = 0;
000004  2400              MOVS     r4,#0
;;;1777   	//appSerialCanDavinciParDebugMsg("Decode RW par ID");
;;;1778   
;;;1779   	for(cmdIndex = 0; mDavinciParameterCanDecodeTab[cmdIndex].fun != 0; cmdIndex++)
;;;1780   	{
;;;1781   		if((mDavinciParameterCanDecodeTab[cmdIndex].canid & mDavinciParameterCanDecodeTab[cmdIndex].mask) == 
000006  4d10              LDR      r5,|L29.72|
000008  e016              B        |L29.56|
                  |L29.10|
00000a  f8550021          LDR      r0,[r5,r1,LSL #2]
00000e  6851              LDR      r1,[r2,#4]
000010  6832              LDR      r2,[r6,#0]
000012  4008              ANDS     r0,r0,r1
000014  4011              ANDS     r1,r1,r2
000016  4288              CMP      r0,r1
000018  d10c              BNE      |L29.52|
;;;1782   		   (mDavinciParameterCanDecodeTab[cmdIndex].mask & pCanPkg->id) &&
;;;1783   		    appSerialCanDavinciIsCorrectScuId(pCanPkg))
00001a  4630              MOV      r0,r6
00001c  f7fffffe          BL       appSerialCanDavinciIsCorrectScuId
000020  b140              CBZ      r0,|L29.52|
;;;1784   		{
;;;1785   			mDavinciParameterCanDecodeTab[cmdIndex].fun(pCanPkg);
000022  eb040044          ADD      r0,r4,r4,LSL #1
000026  eb050080          ADD      r0,r5,r0,LSL #2
00002a  6881              LDR      r1,[r0,#8]
00002c  4630              MOV      r0,r6
00002e  e8bd4070          POP      {r4-r6,lr}
000032  4708              BX       r1
                  |L29.52|
000034  1c64              ADDS     r4,r4,#1              ;1779
000036  b2e4              UXTB     r4,r4                 ;1779
                  |L29.56|
000038  eb040144          ADD      r1,r4,r4,LSL #1       ;1779
00003c  eb050281          ADD      r2,r5,r1,LSL #2       ;1779
000040  6890              LDR      r0,[r2,#8]            ;1779
000042  2800              CMP      r0,#0                 ;1779
000044  d1e1              BNE      |L29.10|
;;;1786   			break; 		
;;;1787    		}
;;;1788   	}
;;;1789   }
000046  bd70              POP      {r4-r6,pc}
;;;1790   
                          ENDP

                  |L29.72|
                          DCD      ||.constdata||

                          AREA ||i.DavinciCanParameterRelayOnDiffVoltage||, CODE, READONLY, ALIGN=2

                  DavinciCanParameterRelayOnDiffVoltage PROC
;;;279    
;;;280    static void DavinciCanParameterRelayOnDiffVoltage(smp_can_package_t *pCanPkg)
000000  b510              PUSH     {r4,lr}
;;;281    {
000002  b086              SUB      sp,sp,#0x18
000004  4604              MOV      r4,r0
;;;282    	smp_can_package_t	CanPkg;
;;;283    	tIbyte	voltage;
;;;284    
;;;285    	if(SMP_CAN_GET_OBJ_INDEX(pCanPkg->id) == SMP_CMD_PAR_RD_OBJ_INDEX)
000006  6820              LDR      r0,[r4,#0]
000008  f3c02087          UBFX     r0,r0,#10,#8
00000c  2801              CMP      r0,#1
00000e  d01b              BEQ      |L30.72|
;;;286    	{
;;;287    		CanPkg.id = MAKE_SMP_CAN_ID(SMP_CAN_FUN_CMD_TX, canParScuId(),
;;;288    									SMP_CMD_PAR_RD_OBJ_INDEX,
;;;289    									SMP_PAR_ID_MOS_ON_DIFF_VOLTAGE);
;;;290    		CanPkg.dlc = 2;
;;;291    		voltage.i = apiSysParGetRelayOnDiffVoltage();
;;;292    		CanPkg.dat[0] = voltage.b[0];
;;;293    		CanPkg.dat[1] = voltage.b[1];
;;;294    	}
;;;295    	else if(isParWritable())
000010  f7fffffe          BL       isParWritable
000014  2800              CMP      r0,#0
000016  d015              BEQ      |L30.68|
;;;296    	{
;;;297    		CanPkg.id = MAKE_SMP_CAN_ID(SMP_CAN_FUN_CMD_TX, canParScuId(),
000018  f7fffffe          BL       appProjectGetScuId
00001c  4915              LDR      r1,|L30.116|
00001e  ea414080          ORR      r0,r1,r0,LSL #18
000022  9002              STR      r0,[sp,#8]
;;;298    									SMP_CMD_PAR_WR_OBJ_INDEX,
;;;299    									SMP_PAR_ID_MOS_ON_DIFF_VOLTAGE);
;;;300    		CanPkg.dlc = 0;
000024  2000              MOVS     r0,#0
000026  f88d000c          STRB     r0,[sp,#0xc]
;;;301    		voltage.b[0] = pCanPkg->dat[0];
00002a  7960              LDRB     r0,[r4,#5]
00002c  f88d0004          STRB     r0,[sp,#4]
;;;302    		voltage.b[1] = pCanPkg->dat[1];
000030  79a0              LDRB     r0,[r4,#6]
000032  f88d0005          STRB     r0,[sp,#5]
;;;303    		apiSysParSetRelayOnDiffVoltage(voltage.i);
000036  f8bd0004          LDRH     r0,[sp,#4]
00003a  f7fffffe          BL       apiSysParSetRelayOnDiffVoltage
                  |L30.62|
;;;304    	}
;;;305    	else
;;;306    		return;
;;;307    	appSerialCanDavinciPutPkgToCanFifo(&CanPkg);	
00003e  a802              ADD      r0,sp,#8
000040  f7fffffe          BL       appSerialCanDavinciPutPkgToCanFifo
                  |L30.68|
;;;308    }
000044  b006              ADD      sp,sp,#0x18
000046  bd10              POP      {r4,pc}
                  |L30.72|
000048  f7fffffe          BL       appProjectGetScuId
00004c  490a              LDR      r1,|L30.120|
00004e  ea414080          ORR      r0,r1,r0,LSL #18      ;287
000052  9002              STR      r0,[sp,#8]            ;287
000054  2002              MOVS     r0,#2                 ;290
000056  f88d000c          STRB     r0,[sp,#0xc]          ;290
00005a  f7fffffe          BL       apiSysParGetRelayOnDiffVoltage
00005e  9001              STR      r0,[sp,#4]            ;291
000060  f89d0004          LDRB     r0,[sp,#4]            ;292
000064  f88d000d          STRB     r0,[sp,#0xd]          ;292
000068  f89d0005          LDRB     r0,[sp,#5]            ;293
00006c  f88d000e          STRB     r0,[sp,#0xe]          ;293
000070  e7e5              B        |L30.62|
;;;309                       			
                          ENDP

000072  0000              DCW      0x0000
                  |L30.116|
                          DCD      0x06000023
                  |L30.120|
                          DCD      0x06000423

                          AREA ||i.DavinciCanParameterTerminateVoltage||, CODE, READONLY, ALIGN=2

                  DavinciCanParameterTerminateVoltage PROC
;;;423      
;;;424    static void DavinciCanParameterTerminateVoltage(smp_can_package_t *pCanPkg)
000000  b510              PUSH     {r4,lr}
;;;425    {
000002  b086              SUB      sp,sp,#0x18
000004  4604              MOV      r4,r0
;;;426    	smp_can_package_t	CanPkg;
;;;427    	tIbyte	voltage;
;;;428    		
;;;429    	if(SMP_CAN_GET_OBJ_INDEX(pCanPkg->id) == SMP_CMD_PAR_RD_OBJ_INDEX)
000006  6820              LDR      r0,[r4,#0]
000008  f3c02087          UBFX     r0,r0,#10,#8
00000c  2801              CMP      r0,#1
00000e  d019              BEQ      |L31.68|
;;;430    	{
;;;431    		CanPkg.id = MAKE_SMP_CAN_ID(SMP_CAN_FUN_CMD_TX, canParScuId(),
;;;432    									SMP_CMD_PAR_RD_OBJ_INDEX,
;;;433    									SMP_PAR_ID_TERMINATE_VOLTAGE);
;;;434    		CanPkg.dlc = 2;
;;;435    		voltage.i = apiSysParGetTerminateVoltage();
;;;436    
;;;437    		CanPkg.dat[0] = voltage.b[0];
;;;438    		CanPkg.dat[1] = voltage.b[1];
;;;439    		appSerialCanDavinciParDebugMsg("Read terminate voltage");
;;;440    	}
;;;441    	else if(isParWritable())
000010  f7fffffe          BL       isParWritable
000014  2800              CMP      r0,#0
000016  d013              BEQ      |L31.64|
;;;442    	{
;;;443    		CanPkg.id = MAKE_SMP_CAN_ID(SMP_CAN_FUN_CMD_TX, canParScuId(),
000018  f7fffffe          BL       appProjectGetScuId
00001c  4914              LDR      r1,|L31.112|
00001e  ea414080          ORR      r0,r1,r0,LSL #18
000022  9002              STR      r0,[sp,#8]
;;;444    									SMP_CMD_PAR_WR_OBJ_INDEX,
;;;445    									SMP_PAR_ID_TERMINATE_VOLTAGE);																		
;;;446    		CanPkg.dlc = 0;
000024  2000              MOVS     r0,#0
000026  f88d000c          STRB     r0,[sp,#0xc]
;;;447    		voltage.i = GET_WORD(&pCanPkg->dat[0]);
00002a  7960              LDRB     r0,[r4,#5]
00002c  79a1              LDRB     r1,[r4,#6]
00002e  eb002001          ADD      r0,r0,r1,LSL #8
000032  b280              UXTH     r0,r0
000034  9001              STR      r0,[sp,#4]
;;;448    		apiSysParSetTerminateVoltage(voltage.i);
000036  f7fffffe          BL       apiSysParSetTerminateVoltage
                  |L31.58|
;;;449    		appSerialCanDavinciParDebugMsg("write  terminate voltage");
;;;450    	}
;;;451    	else
;;;452    		return;
;;;453    	appSerialCanDavinciPutPkgToCanFifo(&CanPkg);	
00003a  a802              ADD      r0,sp,#8
00003c  f7fffffe          BL       appSerialCanDavinciPutPkgToCanFifo
                  |L31.64|
;;;454    } 
000040  b006              ADD      sp,sp,#0x18
000042  bd10              POP      {r4,pc}
                  |L31.68|
000044  f7fffffe          BL       appProjectGetScuId
000048  490a              LDR      r1,|L31.116|
00004a  ea414080          ORR      r0,r1,r0,LSL #18      ;431
00004e  9002              STR      r0,[sp,#8]            ;431
000050  2002              MOVS     r0,#2                 ;434
000052  f88d000c          STRB     r0,[sp,#0xc]          ;434
000056  f7fffffe          BL       apiSysParGetTerminateVoltage
00005a  9001              STR      r0,[sp,#4]            ;435
00005c  f89d0004          LDRB     r0,[sp,#4]            ;437
000060  f88d000d          STRB     r0,[sp,#0xd]          ;437
000064  f89d0005          LDRB     r0,[sp,#5]            ;438
000068  f88d000e          STRB     r0,[sp,#0xe]          ;438
00006c  e7e5              B        |L31.58|
;;;455    
                          ENDP

00006e  0000              DCW      0x0000
                  |L31.112|
                          DCD      0x0600002a
                  |L31.116|
                          DCD      0x0600042a

                          AREA ||i.DavinciCanParameterUvp||, CODE, READONLY, ALIGN=2

                  DavinciCanParameterUvp PROC
;;;722    }
;;;723    static void DavinciCanParameterUvp(smp_can_package_t *pCanPkg)
000000  b510              PUSH     {r4,lr}
;;;724    {
000002  b088              SUB      sp,sp,#0x20
000004  4604              MOV      r4,r0
;;;725    	smp_can_package_t	CanPkg;
;;;726    	tScuProtectPar		ProtectPar;
;;;727    
;;;728    	if(SMP_CAN_GET_OBJ_INDEX(pCanPkg->id) == SMP_CMD_PAR_RD_OBJ_INDEX)
000006  6820              LDR      r0,[r4,#0]
000008  f3c02087          UBFX     r0,r0,#10,#8
00000c  2801              CMP      r0,#1
00000e  d023              BEQ      |L32.88|
;;;729    	{
;;;730    		CanPkg.id = MAKE_SMP_CAN_ID(SMP_CAN_FUN_CMD_TX, canParScuId(),
;;;731    									SMP_CMD_PAR_RD_OBJ_INDEX,
;;;732    									SMP_PAR_ID_UVP_PROTECT);
;;;733    				
;;;734    		CanPkg.dlc = 7;
;;;735    		CanPkg.dat[0] = pCanPkg->dat[0];		
;;;736    		apiSysParGetUvpPar(pCanPkg->dat[0], &ProtectPar);
;;;737    		CanPkg.dat[1] = ProtectPar.SetValue.b[0];
;;;738    		CanPkg.dat[2] = ProtectPar.SetValue.b[1];
;;;739    		CanPkg.dat[3] = ProtectPar.STime.b[0];
;;;740    		CanPkg.dat[4] = ProtectPar.RelValue.b[0];
;;;741    		CanPkg.dat[5] = ProtectPar.RelValue.b[1];
;;;742    		CanPkg.dat[6] = ProtectPar.RTime.b[0];
;;;743    
;;;744    		appSerialCanDavinciParDebugMsg("Read Uvp");
;;;745    	}
;;;746    	else if(isParWritable())
000010  f7fffffe          BL       isParWritable
000014  2800              CMP      r0,#0
000016  d01d              BEQ      |L32.84|
;;;747    	{
;;;748    		CanPkg.id = MAKE_SMP_CAN_ID(SMP_CAN_FUN_CMD_TX, canParScuId(),
000018  f7fffffe          BL       appProjectGetScuId
00001c  4923              LDR      r1,|L32.172|
00001e  ea414080          ORR      r0,r1,r0,LSL #18
000022  9004              STR      r0,[sp,#0x10]
;;;749    									SMP_CMD_PAR_WR_OBJ_INDEX,
;;;750    									SMP_PAR_ID_UVP_PROTECT);
;;;751    		CanPkg.dlc = 0;
000024  2000              MOVS     r0,#0
000026  f88d0014          STRB     r0,[sp,#0x14]
;;;752    		ProtectPar.SetValue.l = GET_WORD(&pCanPkg->dat[1]);
00002a  79a0              LDRB     r0,[r4,#6]
00002c  79e1              LDRB     r1,[r4,#7]
00002e  eb002001          ADD      r0,r0,r1,LSL #8
000032  9000              STR      r0,[sp,#0]
;;;753    		ProtectPar.STime.l = pCanPkg->dat[3];
000034  7a20              LDRB     r0,[r4,#8]
000036  9001              STR      r0,[sp,#4]
;;;754    		ProtectPar.RelValue.l = GET_WORD(&pCanPkg->dat[4]);
000038  7a60              LDRB     r0,[r4,#9]
00003a  7aa1              LDRB     r1,[r4,#0xa]
00003c  eb002001          ADD      r0,r0,r1,LSL #8
000040  9002              STR      r0,[sp,#8]
;;;755    		ProtectPar.RTime.l = pCanPkg->dat[6];
000042  7ae0              LDRB     r0,[r4,#0xb]
000044  9003              STR      r0,[sp,#0xc]
;;;756    
;;;757    		apiSysParSetUvpPar(pCanPkg->dat[0], &ProtectPar);
000046  7960              LDRB     r0,[r4,#5]
000048  4669              MOV      r1,sp
00004a  f7fffffe          BL       apiSysParSetUvpPar
                  |L32.78|
;;;758    		appSerialCanDavinciParDebugMsg("Write Uvp");
;;;759    	}
;;;760    	else
;;;761    		return;
;;;762    
;;;763    	appSerialCanDavinciPutPkgToCanFifo(&CanPkg);
00004e  a804              ADD      r0,sp,#0x10
000050  f7fffffe          BL       appSerialCanDavinciPutPkgToCanFifo
                  |L32.84|
;;;764    }
000054  b008              ADD      sp,sp,#0x20
000056  bd10              POP      {r4,pc}
                  |L32.88|
000058  f7fffffe          BL       appProjectGetScuId
00005c  4914              LDR      r1,|L32.176|
00005e  ea414080          ORR      r0,r1,r0,LSL #18      ;730
000062  9004              STR      r0,[sp,#0x10]         ;730
000064  2007              MOVS     r0,#7                 ;734
000066  f88d0014          STRB     r0,[sp,#0x14]         ;734
00006a  7960              LDRB     r0,[r4,#5]            ;735
00006c  f88d0015          STRB     r0,[sp,#0x15]         ;735
000070  7960              LDRB     r0,[r4,#5]            ;736
000072  4669              MOV      r1,sp                 ;736
000074  f7fffffe          BL       apiSysParGetUvpPar
000078  f89d0000          LDRB     r0,[sp,#0]            ;737
00007c  f88d0016          STRB     r0,[sp,#0x16]         ;737
000080  f89d0001          LDRB     r0,[sp,#1]            ;738
000084  f88d0017          STRB     r0,[sp,#0x17]         ;738
000088  f89d0004          LDRB     r0,[sp,#4]            ;739
00008c  f88d0018          STRB     r0,[sp,#0x18]         ;739
000090  f89d0008          LDRB     r0,[sp,#8]            ;740
000094  f88d0019          STRB     r0,[sp,#0x19]         ;740
000098  f89d0009          LDRB     r0,[sp,#9]            ;741
00009c  f88d001a          STRB     r0,[sp,#0x1a]         ;741
0000a0  f89d000c          LDRB     r0,[sp,#0xc]          ;742
0000a4  f88d001b          STRB     r0,[sp,#0x1b]         ;742
0000a8  e7d1              B        |L32.78|
;;;765    static void DavinciCanParameterCotp(smp_can_package_t *pCanPkg)
                          ENDP

0000aa  0000              DCW      0x0000
                  |L32.172|
                          DCD      0x06000061
                  |L32.176|
                          DCD      0x06000461

                          AREA ||i.DavinciCanParameterVBatCalibration||, CODE, READONLY, ALIGN=2

                          REQUIRE _printf_percent
                          REQUIRE _printf_d
                          REQUIRE _printf_int_dec
                  DavinciCanParameterVBatCalibration PROC
;;;1473   }
;;;1474   static void DavinciCanParameterVBatCalibration(smp_can_package_t *pCanPkg)
000000  b510              PUSH     {r4,lr}
;;;1475   {
000002  b0a0              SUB      sp,sp,#0x80
000004  4604              MOV      r4,r0
;;;1476   //	int8_t				cansendbf[8];
;;;1477   	smp_can_package_t	CanPkg;
;;;1478   	tLbyte				Value;
;;;1479   	tLbyte				Adc;
;;;1480   	char				str[100];
;;;1481   
;;;1482   	if(SMP_CAN_GET_OBJ_INDEX(pCanPkg->id) == SMP_CMD_PAR_RD_OBJ_INDEX)
000006  6820              LDR      r0,[r4,#0]
000008  f3c02087          UBFX     r0,r0,#10,#8
00000c  2801              CMP      r0,#1
00000e  d027              BEQ      |L33.96|
;;;1483   	{
;;;1484   		CanPkg.id = MAKE_SMP_CAN_ID(SMP_CAN_FUN_CMD_TX, canParScuId(),
;;;1485   									SMP_CMD_PAR_RD_OBJ_INDEX,
;;;1486   									SMP_PAR_ID_CALIB_VB);
;;;1487   		CanPkg.dlc = 8;
;;;1488   		apiCaliParGetVbatValue(pCanPkg->dat[0], pCanPkg->dat[1],
;;;1489   									&Value.sl, &Adc.sl);
;;;1490   		CanPkg.dat[0] = pCanPkg->dat[0];	//vbat index
;;;1491   		CanPkg.dat[1] = pCanPkg->dat[1];	//point 0 or 1
;;;1492   		CanPkg.dat[2] = Value.b[0];	
;;;1493   		CanPkg.dat[3] = Value.b[1];
;;;1494   		CanPkg.dat[4] = Value.b[2];
;;;1495   		CanPkg.dat[5] = Adc.b[0];
;;;1496   		CanPkg.dat[6] = Adc.b[1];
;;;1497   		CanPkg.dat[7] = Adc.b[2];	
;;;1498   
;;;1499   		appSerialCanDavinciParDebugMsg("Read Vbat Cali");
;;;1500   	}
;;;1501   	else if(isParWritable())
000010  f7fffffe          BL       isParWritable
000014  2800              CMP      r0,#0
000016  d021              BEQ      |L33.92|
;;;1502   	{
;;;1503   		CanPkg.id = MAKE_SMP_CAN_ID(SMP_CAN_FUN_CMD_TX, canParScuId(),
000018  f7fffffe          BL       appProjectGetScuId
00001c  4927              LDR      r1,|L33.188|
00001e  ea414080          ORR      r0,r1,r0,LSL #18
000022  901c              STR      r0,[sp,#0x70]
;;;1504   									SMP_CMD_PAR_WR_OBJ_INDEX,
;;;1505   									SMP_PAR_ID_CALIB_VB);
;;;1506   		CanPkg.dlc = 0;
000024  2000              MOVS     r0,#0
000026  f88d0074          STRB     r0,[sp,#0x74]
;;;1507   
;;;1508   		Value.sl = Get3BytesInt32(&pCanPkg->dat[2]);
00002a  1de0              ADDS     r0,r4,#7
00002c  f7fffffe          BL       Get3BytesInt32
000030  901b              STR      r0,[sp,#0x6c]
;;;1509   		Adc.sl = Get3BytesInt32(&pCanPkg->dat[5]);
000032  f104000a          ADD      r0,r4,#0xa
000036  f7fffffe          BL       Get3BytesInt32
00003a  901a              STR      r0,[sp,#0x68]
;;;1510   		apiCaliParSetVbatValue(pCanPkg->dat[0], pCanPkg->dat[1],
00003c  79a1              LDRB     r1,[r4,#6]
00003e  7964              LDRB     r4,[r4,#5]
000040  4603              MOV      r3,r0
000042  4620              MOV      r0,r4
000044  9a1b              LDR      r2,[sp,#0x6c]
000046  f7fffffe          BL       apiCaliParSetVbatValue
;;;1511   									Value.sl, Adc.sl);
;;;1512   									
;;;1513   		sprintf(str,"Wr Vbat %d %d",Value.sl, Adc.sl);
00004a  e9dd321a          LDRD     r3,r2,[sp,#0x68]
00004e  a11c              ADR      r1,|L33.192|
000050  a801              ADD      r0,sp,#4
000052  f7fffffe          BL       __2sprintf
                  |L33.86|
;;;1514   		appSerialCanDavinciParDebugMsg(str);//"Write vbat Cali");
;;;1515   	}
;;;1516   	else
;;;1517   		return;
;;;1518   	appSerialCanDavinciPutPkgToCanFifo(&CanPkg);
000056  a81c              ADD      r0,sp,#0x70
000058  f7fffffe          BL       appSerialCanDavinciPutPkgToCanFifo
                  |L33.92|
;;;1519   }
00005c  b020              ADD      sp,sp,#0x80
00005e  bd10              POP      {r4,pc}
                  |L33.96|
000060  f7fffffe          BL       appProjectGetScuId
000064  491a              LDR      r1,|L33.208|
000066  ea414080          ORR      r0,r1,r0,LSL #18      ;1484
00006a  901c              STR      r0,[sp,#0x70]         ;1484
00006c  2008              MOVS     r0,#8                 ;1487
00006e  f88d0074          STRB     r0,[sp,#0x74]         ;1487
000072  79a1              LDRB     r1,[r4,#6]            ;1488
000074  7960              LDRB     r0,[r4,#5]            ;1488
000076  ab1a              ADD      r3,sp,#0x68           ;1488
000078  aa1b              ADD      r2,sp,#0x6c           ;1488
00007a  f7fffffe          BL       apiCaliParGetVbatValue
00007e  7960              LDRB     r0,[r4,#5]            ;1490
000080  f88d0075          STRB     r0,[sp,#0x75]         ;1490
000084  79a0              LDRB     r0,[r4,#6]            ;1491
000086  f88d0076          STRB     r0,[sp,#0x76]         ;1491
00008a  f89d006c          LDRB     r0,[sp,#0x6c]         ;1492
00008e  f88d0077          STRB     r0,[sp,#0x77]         ;1492
000092  f89d006d          LDRB     r0,[sp,#0x6d]         ;1493
000096  f88d0078          STRB     r0,[sp,#0x78]         ;1493
00009a  f89d006e          LDRB     r0,[sp,#0x6e]         ;1494
00009e  f88d0079          STRB     r0,[sp,#0x79]         ;1494
0000a2  f89d0068          LDRB     r0,[sp,#0x68]         ;1495
0000a6  f88d007a          STRB     r0,[sp,#0x7a]         ;1495
0000aa  f89d0069          LDRB     r0,[sp,#0x69]         ;1496
0000ae  f88d007b          STRB     r0,[sp,#0x7b]         ;1496
0000b2  f89d006a          LDRB     r0,[sp,#0x6a]         ;1497
0000b6  f88d007c          STRB     r0,[sp,#0x7c]         ;1497
0000ba  e7cc              B        |L33.86|
;;;1520   
                          ENDP

                  |L33.188|
                          DCD      0x06000091
                  |L33.192|
0000c0  57722056          DCB      "Wr Vbat %d %d",0
0000c4  62617420
0000c8  25642025
0000cc  6400    
0000ce  00                DCB      0
0000cf  00                DCB      0
                  |L33.208|
                          DCD      0x06000491

                          AREA ||i.DavinciCanParameterZeroCurrent||, CODE, READONLY, ALIGN=2

                  DavinciCanParameterZeroCurrent PROC
;;;206    
;;;207    static void DavinciCanParameterZeroCurrent(smp_can_package_t *pCanPkg)
000000  b510              PUSH     {r4,lr}
;;;208    {
000002  b086              SUB      sp,sp,#0x18
000004  4604              MOV      r4,r0
;;;209    	smp_can_package_t	CanPkg;
;;;210    	tIbyte	current;
;;;211    
;;;212    	if(SMP_CAN_GET_OBJ_INDEX(pCanPkg->id) == SMP_CMD_PAR_RD_OBJ_INDEX)
000006  6820              LDR      r0,[r4,#0]
000008  f3c02087          UBFX     r0,r0,#10,#8
00000c  2801              CMP      r0,#1
00000e  d025              BEQ      |L34.92|
;;;213    	{
;;;214    		CanPkg.id = MAKE_SMP_CAN_ID(SMP_CAN_FUN_CMD_TX, canParScuId(),
;;;215    									SMP_CMD_PAR_RD_OBJ_INDEX,
;;;216    									SMP_PAR_ID_ZERO_CURRENT);
;;;217    		CanPkg.dlc = 4;
;;;218    		current.i = apiSysParGetZeroCurrentValue();
;;;219    		CanPkg.dat[0] = current.b[0];
;;;220    		CanPkg.dat[1] = current.b[1];
;;;221    		current.i = apiSysParGetMinChargeCurrentValue();
;;;222    		CanPkg.dat[2] = current.b[0];
;;;223    		CanPkg.dat[3] = current.b[1];
;;;224    
;;;225    		appSerialCanDavinciParDebugMsg("Read zero current");
;;;226    	}
;;;227    	else if(isParWritable())
000010  f7fffffe          BL       isParWritable
000014  2800              CMP      r0,#0
000016  d01f              BEQ      |L34.88|
;;;228    	{
;;;229    		CanPkg.id = MAKE_SMP_CAN_ID(SMP_CAN_FUN_CMD_TX, canParScuId(),
000018  f7fffffe          BL       appProjectGetScuId
00001c  491f              LDR      r1,|L34.156|
00001e  ea414080          ORR      r0,r1,r0,LSL #18
000022  9002              STR      r0,[sp,#8]
;;;230    									SMP_CMD_PAR_WR_OBJ_INDEX,
;;;231    									SMP_PAR_ID_ZERO_CURRENT);
;;;232    		CanPkg.dlc = 0;
000024  2000              MOVS     r0,#0
000026  f88d000c          STRB     r0,[sp,#0xc]
;;;233    		current.b[0] = pCanPkg->dat[0];
00002a  7960              LDRB     r0,[r4,#5]
00002c  f88d0004          STRB     r0,[sp,#4]
;;;234    		current.b[1] = pCanPkg->dat[1];
000030  79a0              LDRB     r0,[r4,#6]
000032  f88d0005          STRB     r0,[sp,#5]
;;;235    		apiSysParSetZeroCurrentValue(current.i);
000036  f8bd0004          LDRH     r0,[sp,#4]
00003a  f7fffffe          BL       apiSysParSetZeroCurrentValue
;;;236    		
;;;237    		current.b[0] = pCanPkg->dat[2];
00003e  79e0              LDRB     r0,[r4,#7]
000040  f88d0004          STRB     r0,[sp,#4]
;;;238    		current.b[1] = pCanPkg->dat[3];
000044  7a20              LDRB     r0,[r4,#8]
000046  f88d0005          STRB     r0,[sp,#5]
;;;239    		apiSysParSetMinChargeCurrentValue(current.i);
00004a  f8bd0004          LDRH     r0,[sp,#4]
00004e  f7fffffe          BL       apiSysParSetMinChargeCurrentValue
                  |L34.82|
;;;240    		
;;;241    		appSerialCanDavinciParDebugMsg("write zero current");
;;;242    	}
;;;243    	else
;;;244    		return;
;;;245    	appSerialCanDavinciPutPkgToCanFifo(&CanPkg);	
000052  a802              ADD      r0,sp,#8
000054  f7fffffe          BL       appSerialCanDavinciPutPkgToCanFifo
                  |L34.88|
;;;246    }
000058  b006              ADD      sp,sp,#0x18
00005a  bd10              POP      {r4,pc}
                  |L34.92|
00005c  f7fffffe          BL       appProjectGetScuId
000060  490f              LDR      r1,|L34.160|
000062  ea414080          ORR      r0,r1,r0,LSL #18      ;214
000066  9002              STR      r0,[sp,#8]            ;214
000068  2004              MOVS     r0,#4                 ;217
00006a  f88d000c          STRB     r0,[sp,#0xc]          ;217
00006e  f7fffffe          BL       apiSysParGetZeroCurrentValue
000072  9001              STR      r0,[sp,#4]            ;218
000074  f89d0004          LDRB     r0,[sp,#4]            ;219
000078  f88d000d          STRB     r0,[sp,#0xd]          ;219
00007c  f89d0005          LDRB     r0,[sp,#5]            ;220
000080  f88d000e          STRB     r0,[sp,#0xe]          ;220
000084  f7fffffe          BL       apiSysParGetMinChargeCurrentValue
000088  9001              STR      r0,[sp,#4]            ;221
00008a  f89d0004          LDRB     r0,[sp,#4]            ;222
00008e  f88d000f          STRB     r0,[sp,#0xf]          ;222
000092  f89d0005          LDRB     r0,[sp,#5]            ;223
000096  f88d0010          STRB     r0,[sp,#0x10]         ;223
00009a  e7da              B        |L34.82|
;;;247    
                          ENDP

                  |L34.156|
                          DCD      0x06000021
                  |L34.160|
                          DCD      0x06000421

                          AREA ||i.DavinciParameterBmuNumber||, CODE, READONLY, ALIGN=2

                  DavinciParameterBmuNumber PROC
;;;1101   
;;;1102   static void DavinciParameterBmuNumber(smp_can_package_t *pCanPkg){
000000  b51f              PUSH     {r0-r4,lr}
000002  4604              MOV      r4,r0
;;;1103   	
;;;1104   	smp_can_package_t	CanPkg;
;;;1105   
;;;1106   	if(SMP_CAN_GET_OBJ_INDEX(pCanPkg->id) == SMP_CMD_PAR_RD_OBJ_INDEX)
000004  6820              LDR      r0,[r4,#0]
000006  f3c02087          UBFX     r0,r0,#10,#8
00000a  2801              CMP      r0,#1
00000c  d013              BEQ      |L35.54|
;;;1107   	{
;;;1108   		CanPkg.id = MAKE_SMP_CAN_ID(SMP_CAN_FUN_CMD_TX, canParScuId(),
;;;1109   									SMP_CMD_PAR_RD_OBJ_INDEX,
;;;1110   									SMP_PAR_ID_BMU_NUMBER);
;;;1111   		CanPkg.dlc = 1;
;;;1112   		CanPkg.dat[0] = apiSysParGetBmuNumber();
;;;1113   		appSerialCanDavinciParDebugMsg("Read BMU Number");
;;;1114   	}
;;;1115   	else if(isParWritable())
00000e  f7fffffe          BL       isParWritable
000012  2800              CMP      r0,#0
000014  d00e              BEQ      |L35.52|
;;;1116   	{
;;;1117   		CanPkg.id = MAKE_SMP_CAN_ID(SMP_CAN_FUN_CMD_TX, canParScuId(),
000016  f7fffffe          BL       appProjectGetScuId
00001a  490e              LDR      r1,|L35.84|
00001c  ea414080          ORR      r0,r1,r0,LSL #18
000020  9000              STR      r0,[sp,#0]
;;;1118   									SMP_CMD_PAR_WR_OBJ_INDEX,
;;;1119   									SMP_PAR_ID_BMU_NUMBER);
;;;1120   		CanPkg.dlc = 0;
000022  2000              MOVS     r0,#0
000024  f88d0004          STRB     r0,[sp,#4]
;;;1121   
;;;1122   		apiSysParSetBmuNumber(pCanPkg->dat[0]);
000028  7960              LDRB     r0,[r4,#5]
00002a  f7fffffe          BL       apiSysParSetBmuNumber
                  |L35.46|
;;;1123   
;;;1124   		appSerialCanDavinciParDebugMsg("Write BMU Number");
;;;1125   	}
;;;1126   	else
;;;1127   		return;
;;;1128   	appSerialCanDavinciPutPkgToCanFifo(&CanPkg);	
00002e  4668              MOV      r0,sp
000030  f7fffffe          BL       appSerialCanDavinciPutPkgToCanFifo
                  |L35.52|
;;;1129   }
000034  bd1f              POP      {r0-r4,pc}
                  |L35.54|
000036  f7fffffe          BL       appProjectGetScuId
00003a  4907              LDR      r1,|L35.88|
00003c  ea414080          ORR      r0,r1,r0,LSL #18      ;1108
000040  9000              STR      r0,[sp,#0]            ;1108
000042  2001              MOVS     r0,#1                 ;1111
000044  f88d0004          STRB     r0,[sp,#4]            ;1111
000048  f7fffffe          BL       apiSysParGetBmuNumber
00004c  f88d0005          STRB     r0,[sp,#5]            ;1112
000050  e7ed              B        |L35.46|
;;;1130   static void DavinciParameterCellNtcFlag(smp_can_package_t *pCanPkg){
                          ENDP

000052  0000              DCW      0x0000
                  |L35.84|
                          DCD      0x06000027
                  |L35.88|
                          DCD      0x06000427

                          AREA ||i.DavinciParameterCellNtcFlag||, CODE, READONLY, ALIGN=2

                  DavinciParameterCellNtcFlag PROC
;;;1129   }
;;;1130   static void DavinciParameterCellNtcFlag(smp_can_package_t *pCanPkg){
000000  b530              PUSH     {r4,r5,lr}
000002  b085              SUB      sp,sp,#0x14
000004  4604              MOV      r4,r0
;;;1131   	
;;;1132   	tLbyte	Lbyte;
;;;1133   	smp_can_package_t	CanPkg;
;;;1134   	
;;;1135   	if(SMP_CAN_GET_OBJ_INDEX(pCanPkg->id) == SMP_CMD_PAR_RD_OBJ_INDEX)
000006  6820              LDR      r0,[r4,#0]
000008  f3c02087          UBFX     r0,r0,#10,#8
00000c  2801              CMP      r0,#1
00000e  d02f              BEQ      |L36.112|
;;;1136   	{
;;;1137   		appSerialCanDavinciParDebugMsg("Read Cell Ntc Flag");
;;;1138   		CanPkg.id = MAKE_SMP_CAN_ID(SMP_CAN_FUN_CMD_TX, canParScuId(),
;;;1139   									SMP_CMD_PAR_RD_OBJ_INDEX,
;;;1140   									SMP_PAR_ID_CELL_NTC_FLAG);
;;;1141   		CanPkg.dlc = 8;
;;;1142   		CanPkg.dat[0] = pCanPkg->dat[0];
;;;1143   		Lbyte.l = apiSysParGetCellFlag(pCanPkg->dat[0]);
;;;1144   		CanPkg.dat[1] = Lbyte.b[0];
;;;1145   		CanPkg.dat[2] = Lbyte.b[1];
;;;1146   		CanPkg.dat[3] = Lbyte.b[2];
;;;1147   		CanPkg.dat[4] = Lbyte.b[3];
;;;1148   		Lbyte.l = apiSysParGetNtcFlag(pCanPkg->dat[0]);
;;;1149   		CanPkg.dat[5] = Lbyte.b[0];
;;;1150   		CanPkg.dat[6] = Lbyte.b[1];
;;;1151   		CanPkg.dat[7] = Lbyte.b[2];
;;;1152   	}
;;;1153   	else if(isParWritable())
000010  f7fffffe          BL       isParWritable
000014  2800              CMP      r0,#0
000016  d029              BEQ      |L36.108|
;;;1154   	{
;;;1155   		appSerialCanDavinciParDebugMsg("Write Cell Ntc Flag");
;;;1156   		
;;;1157   		Lbyte.l = GET_DWORD(&pCanPkg->dat[1]);
000018  79a0              LDRB     r0,[r4,#6]
00001a  7a61              LDRB     r1,[r4,#9]
00001c  79e2              LDRB     r2,[r4,#7]
00001e  eb006001          ADD      r0,r0,r1,LSL #24
000022  7a21              LDRB     r1,[r4,#8]
000024  0409              LSLS     r1,r1,#16
000026  eb012102          ADD      r1,r1,r2,LSL #8
00002a  4401              ADD      r1,r1,r0
;;;1158   		apiSysParSetCellFlag(pCanPkg->dat[0], Lbyte.l);
00002c  7960              LDRB     r0,[r4,#5]
00002e  f7fffffe          BL       apiSysParSetCellFlag
;;;1159   		
;;;1160   		Lbyte.l = GET_DWORD(&pCanPkg->dat[5]);
000032  7aa0              LDRB     r0,[r4,#0xa]
000034  7b61              LDRB     r1,[r4,#0xd]
000036  7ae2              LDRB     r2,[r4,#0xb]
000038  eb006001          ADD      r0,r0,r1,LSL #24
00003c  7b21              LDRB     r1,[r4,#0xc]
00003e  0409              LSLS     r1,r1,#16
000040  eb012102          ADD      r1,r1,r2,LSL #8
000044  4408              ADD      r0,r0,r1
000046  9004              STR      r0,[sp,#0x10]
;;;1161   		Lbyte.b[3] = 0;
000048  2500              MOVS     r5,#0
00004a  f88d5013          STRB     r5,[sp,#0x13]
;;;1162   		apiSysParSetNtcFlag(pCanPkg->dat[0], Lbyte.l);
00004e  7960              LDRB     r0,[r4,#5]
000050  9904              LDR      r1,[sp,#0x10]
000052  f7fffffe          BL       apiSysParSetNtcFlag
;;;1163   		
;;;1164   		CanPkg.id = MAKE_SMP_CAN_ID(SMP_CAN_FUN_CMD_TX, canParScuId(),
000056  f7fffffe          BL       appProjectGetScuId
00005a  491e              LDR      r1,|L36.212|
00005c  ea414080          ORR      r0,r1,r0,LSL #18
000060  9000              STR      r0,[sp,#0]
;;;1165   									SMP_CMD_PAR_WR_OBJ_INDEX,
;;;1166   									SMP_PAR_ID_CELL_NTC_FLAG);
;;;1167   		CanPkg.dlc = 0;
000062  f88d5004          STRB     r5,[sp,#4]
                  |L36.102|
;;;1168   	}
;;;1169   	else
;;;1170   		return;
;;;1171   	appSerialCanDavinciPutPkgToCanFifo(&CanPkg);	
000066  4668              MOV      r0,sp
000068  f7fffffe          BL       appSerialCanDavinciPutPkgToCanFifo
                  |L36.108|
;;;1172   }
00006c  b005              ADD      sp,sp,#0x14
00006e  bd30              POP      {r4,r5,pc}
                  |L36.112|
000070  f7fffffe          BL       appProjectGetScuId
000074  4918              LDR      r1,|L36.216|
000076  ea414080          ORR      r0,r1,r0,LSL #18      ;1138
00007a  9000              STR      r0,[sp,#0]            ;1138
00007c  2008              MOVS     r0,#8                 ;1141
00007e  f88d0004          STRB     r0,[sp,#4]            ;1141
000082  7960              LDRB     r0,[r4,#5]            ;1142
000084  f88d0005          STRB     r0,[sp,#5]            ;1142
000088  7960              LDRB     r0,[r4,#5]            ;1143
00008a  f7fffffe          BL       apiSysParGetCellFlag
00008e  9004              STR      r0,[sp,#0x10]         ;1143
000090  f89d0010          LDRB     r0,[sp,#0x10]         ;1144
000094  f88d0006          STRB     r0,[sp,#6]            ;1144
000098  f89d0011          LDRB     r0,[sp,#0x11]         ;1145
00009c  f88d0007          STRB     r0,[sp,#7]            ;1145
0000a0  f89d0012          LDRB     r0,[sp,#0x12]         ;1146
0000a4  f88d0008          STRB     r0,[sp,#8]            ;1146
0000a8  f89d0013          LDRB     r0,[sp,#0x13]         ;1147
0000ac  f88d0009          STRB     r0,[sp,#9]            ;1147
0000b0  7960              LDRB     r0,[r4,#5]            ;1148
0000b2  f7fffffe          BL       apiSysParGetNtcFlag
0000b6  9004              STR      r0,[sp,#0x10]         ;1148
0000b8  f89d0010          LDRB     r0,[sp,#0x10]         ;1149
0000bc  f88d000a          STRB     r0,[sp,#0xa]          ;1149
0000c0  f89d0011          LDRB     r0,[sp,#0x11]         ;1150
0000c4  f88d000b          STRB     r0,[sp,#0xb]          ;1150
0000c8  f89d0012          LDRB     r0,[sp,#0x12]         ;1151
0000cc  f88d000c          STRB     r0,[sp,#0xc]          ;1151
0000d0  e7c9              B        |L36.102|
;;;1173   
                          ENDP

0000d2  0000              DCW      0x0000
                  |L36.212|
                          DCD      0x06000033
                  |L36.216|
                          DCD      0x06000433

                          AREA ||i.DavinciParameterMagicCode||, CODE, READONLY, ALIGN=2

                  DavinciParameterMagicCode PROC
;;;73     
;;;74     static void DavinciParameterMagicCode(smp_can_package_t *pCanPkg){
000000  b57f              PUSH     {r0-r6,lr}
000002  4604              MOV      r4,r0
;;;75     	smp_can_package_t	CanPkg;
;;;76     
;;;77     	if(SMP_CAN_GET_OBJ_INDEX(pCanPkg->id) == SMP_CMD_PAR_RD_OBJ_INDEX)
;;;78     	{
;;;79     		CanPkg.id = MAKE_SMP_CAN_ID(SMP_CAN_FUN_CMD_TX, canParScuId(),
;;;80     									SMP_CMD_PAR_RD_OBJ_INDEX,
;;;81     									SMP_PAR_MAGIC_CODE);
;;;82     		CanPkg.dlc = 1;
000004  2601              MOVS     r6,#1
000006  6820              LDR      r0,[r4,#0]            ;77
;;;83     		CanPkg.dat[0] = IdleCount;
000008  4d18              LDR      r5,|L37.108|
00000a  f3c02087          UBFX     r0,r0,#10,#8          ;77
00000e  2801              CMP      r0,#1                 ;77
000010  d012              BEQ      |L37.56|
;;;84     		
;;;85     		appSerialCanDavinciParDebugMsg("Read Magic Code Idle Time");
;;;86     	}
;;;87     	else
;;;88     	{
;;;89     		CanPkg.id = MAKE_SMP_CAN_ID(SMP_CAN_FUN_CMD_TX, canParScuId(),
000012  f7fffffe          BL       appProjectGetScuId
000016  f04f61c0          MOV      r1,#0x6000000
00001a  ea414080          ORR      r0,r1,r0,LSL #18
00001e  9000              STR      r0,[sp,#0]
;;;90     									SMP_CMD_PAR_WR_OBJ_INDEX,
;;;91     									SMP_PAR_MAGIC_CODE);
;;;92     		CanPkg.dlc = 1;
000020  f88d6004          STRB     r6,[sp,#4]
;;;93     		CanPkg.dat[0] = 0;
000024  2000              MOVS     r0,#0
000026  f88d0005          STRB     r0,[sp,#5]
;;;94     		if(memcmp(&pCanPkg->dat ,"EssWrPar", 8) == 0)
00002a  2208              MOVS     r2,#8
00002c  a110              ADR      r1,|L37.112|
00002e  1d60              ADDS     r0,r4,#5
000030  f7fffffe          BL       memcmp
000034  b160              CBZ      r0,|L37.80|
000036  e015              B        |L37.100|
                  |L37.56|
000038  f7fffffe          BL       appProjectGetScuId
00003c  490f              LDR      r1,|L37.124|
00003e  ea414080          ORR      r0,r1,r0,LSL #18      ;79
000042  9000              STR      r0,[sp,#0]            ;79
000044  f88d6004          STRB     r6,[sp,#4]            ;82
000048  7828              LDRB     r0,[r5,#0]            ;83  ; IdleCount
00004a  f88d0005          STRB     r0,[sp,#5]            ;83
00004e  e009              B        |L37.100|
                  |L37.80|
;;;95     		{
;;;96     			if(IdleCount == 0)
000050  7828              LDRB     r0,[r5,#0]  ; IdleCount
000052  b918              CBNZ     r0,|L37.92|
;;;97     			{
;;;98     				LibSwTimerOpen(magicCodeIdleSwTimerHandler, 0);
000054  2100              MOVS     r1,#0
000056  480a              LDR      r0,|L37.128|
000058  f7fffffe          BL       LibSwTimerOpen
                  |L37.92|
;;;99     				appSerialCanDavinciParDebugMsg("Open Magic Time");
;;;100    			}
;;;101    			IdleCount = 10;
00005c  200a              MOVS     r0,#0xa
00005e  7028              STRB     r0,[r5,#0]
;;;102    			CanPkg.dat[0] = 10;
000060  f88d0005          STRB     r0,[sp,#5]
                  |L37.100|
;;;103    		}
;;;104    	}		
;;;105    	appSerialCanDavinciPutPkgToCanFifo(&CanPkg);
000064  4668              MOV      r0,sp
000066  f7fffffe          BL       appSerialCanDavinciPutPkgToCanFifo
;;;106    }
00006a  bd7f              POP      {r0-r6,pc}
;;;107    
                          ENDP

                  |L37.108|
                          DCD      ||.data||
                  |L37.112|
000070  45737357          DCB      "EssWrPar",0
000074  72506172
000078  00      
000079  00                DCB      0
00007a  00                DCB      0
00007b  00                DCB      0
                  |L37.124|
                          DCD      0x06000400
                  |L37.128|
                          DCD      magicCodeIdleSwTimerHandler

                          AREA ||i.Get3BytesInt32||, CODE, READONLY, ALIGN=1

                  Get3BytesInt32 PROC
;;;1414   
;;;1415   static int32_t Get3BytesInt32(uint8_t *pDat)
000000  b508              PUSH     {r3,lr}
;;;1416   {
;;;1417   	tLbyte	value;
;;;1418   	value.b[0] = pDat[0];
000002  7801              LDRB     r1,[r0,#0]
000004  f88d1000          STRB     r1,[sp,#0]
;;;1419   	value.b[1] = pDat[1];
000008  7841              LDRB     r1,[r0,#1]
00000a  f88d1001          STRB     r1,[sp,#1]
;;;1420   	value.b[2] = pDat[2];
00000e  7880              LDRB     r0,[r0,#2]
000010  f88d0002          STRB     r0,[sp,#2]
;;;1421   	if(value.b[2] &0x80)
000014  0600              LSLS     r0,r0,#24
000016  d503              BPL      |L38.32|
;;;1422   		value.b[3] = 0xff;
000018  20ff              MOVS     r0,#0xff
00001a  f88d0003          STRB     r0,[sp,#3]
00001e  e002              B        |L38.38|
                  |L38.32|
;;;1423   	else
;;;1424   		value.b[3] = 0;
000020  2000              MOVS     r0,#0
000022  f88d0003          STRB     r0,[sp,#3]
                  |L38.38|
;;;1425   	return value.sl;
000026  9800              LDR      r0,[sp,#0]
;;;1426   }
000028  bd08              POP      {r3,pc}
;;;1427   
                          ENDP


                          AREA ||i.isParWritable||, CODE, READONLY, ALIGN=2

                  isParWritable PROC
;;;48     /* Private function prototypes -----------------------------------------------*/
;;;49     static uint8_t isParWritable(void)
000000  4801              LDR      r0,|L39.8|
;;;50     {
;;;51     	return IdleCount;
000002  7800              LDRB     r0,[r0,#0]  ; IdleCount
;;;52     }
000004  4770              BX       lr
;;;53     
                          ENDP

000006  0000              DCW      0x0000
                  |L39.8|
                          DCD      ||.data||

                          AREA ||i.magicCodeIdleSwTimerHandler||, CODE, READONLY, ALIGN=2

                  magicCodeIdleSwTimerHandler PROC
;;;53     
;;;54     static void magicCodeIdleSwTimerHandler(__far void *dest, uint16_t evt, void *vDataPtr)
000000  290a              CMP      r1,#0xa
;;;55     {
000002  d011              BEQ      |L40.40|
;;;56     	if(evt == LIB_SW_TIMER_EVT_SW_1MS)
;;;57     		return;
;;;58     	else if(evt == LIB_SW_TIMER_EVT_SW_1S)
000004  290d              CMP      r1,#0xd
000006  d10f              BNE      |L40.40|
;;;59     	{
;;;60     		if(IdleCount == 0)
000008  4908              LDR      r1,|L40.44|
00000a  7808              LDRB     r0,[r1,#0]  ; IdleCount
00000c  b140              CBZ      r0,|L40.32|
;;;61     			LibSwTimerClose(magicCodeIdleSwTimerHandler, 0);
;;;62     		else
;;;63     		{
;;;64     			IdleCount--;
00000e  1e40              SUBS     r0,r0,#1
000010  b2c0              UXTB     r0,r0
000012  7008              STRB     r0,[r1,#0]
;;;65     			if(IdleCount == 0)
000014  2800              CMP      r0,#0
000016  d107              BNE      |L40.40|
;;;66     			{
;;;67     				LibSwTimerClose(magicCodeIdleSwTimerHandler, 0);
000018  2100              MOVS     r1,#0
00001a  4805              LDR      r0,|L40.48|
00001c  f7ffbffe          B.W      LibSwTimerClose
                  |L40.32|
000020  2100              MOVS     r1,#0                 ;61
000022  4803              LDR      r0,|L40.48|
000024  f7ffbffe          B.W      LibSwTimerClose
                  |L40.40|
;;;68     				appSerialCanDavinciParDebugMsg("Close Magic Time");
;;;69     			}
;;;70     		}
;;;71     	}
;;;72     }
000028  4770              BX       lr
;;;73     
                          ENDP

00002a  0000              DCW      0x0000
                  |L40.44|
                          DCD      ||.data||
                  |L40.48|
                          DCD      magicCodeIdleSwTimerHandler

                          AREA ||.bss||, DATA, NOINIT, ALIGN=0

                  StringMessageBuffer
                          %        102

                          AREA ||.constdata||, DATA, READONLY, ALIGN=2

                  mDavinciParameterCanDecodeTab
                          DCD      0x04000000
                          DCD      0x000003ff
                          DCD      DavinciParameterMagicCode
                          DCD      0x04000001
                          DCD      0x000003ff
                          DCD      DavinciCanParameterHwVersion
                          DCD      0x04000002
                          DCD      0x000003ff
                          DCD      DavinciCanParameterFwVersion
                          DCD      0x04000003
                          DCD      0x000003ff
                          DCD      DavinciCanParameterFwBuildDateTime
                          DCD      0x04000021
                          DCD      0x000003ff
                          DCD      DavinciCanParameterZeroCurrent
                          DCD      0x04000022
                          DCD      0x000003ff
                          DCD      DavinciCanParameterPreDischargeTime
                          DCD      0x04000023
                          DCD      0x000003ff
                          DCD      DavinciCanParameterRelayOnDiffVoltage
                          DCD      0x04000024
                          DCD      0x000003ff
                          DCD      DavinciCanParameterDesignedCapacity
                          DCD      0x04000028
                          DCD      0x000003ff
                          DCD      DavinciCanParameterFullChargeCondition
                          DCD      0x04000029
                          DCD      0x000003ff
                          DCD      DavinciCanParameterFlatVoltage
                          DCD      0x0400002a
                          DCD      0x000003ff
                          DCD      DavinciCanParameterTerminateVoltage
                          DCD      0x04000032
                          DCD      0x000003ff
                          DCD      DavinciCanParameterAfeCommunication
                          DCD      0x04000038
                          DCD      0x000003ff
                          DCD      DavinciCanParameterInsulationResistance
                          DCD      0x0400002b
                          DCD      0x000003ff
                          DCD      DavinciCanParameterQmax
                          DCD      0x0400002d
                          DCD      0x000003ff
                          DCD      DavinciCanParameterRM
                          DCD      0x0400000a
                          DCD      0x000003ff
                          DCD      DavinciCanParameterNoteMessage
                          DCD      0x04000027
                          DCD      0x000003ff
                          DCD      DavinciParameterBmuNumber
                          DCD      0x04000033
                          DCD      0x000003ff
                          DCD      DavinciParameterCellNtcFlag
                          DCD      0x040000a1
                          DCD      0x000003ff
                          DCD      DavinciCanParameterOcvTable
                          DCD      0x040000b1
                          DCD      0x000003ff
                          DCD      DavinciCanParameterRaTable
                          DCD      0x04000060
                          DCD      0x000003ff
                          DCD      DavinciCanParameterOvp
                          DCD      0x04000061
                          DCD      0x000003ff
                          DCD      DavinciCanParameterUvp
                          DCD      0x04000062
                          DCD      0x000003ff
                          DCD      DavinciCanParameterCotp
                          DCD      0x04000063
                          DCD      0x000003ff
                          DCD      DavinciCanParameterCutp
                          DCD      0x04000064
                          DCD      0x000003ff
                          DCD      DavinciCanParameterDotp
                          DCD      0x04000065
                          DCD      0x000003ff
                          DCD      DavinciCanParameterDutp
                          DCD      0x04000066
                          DCD      0x000003ff
                          DCD      DavinciCanParameterDtp
                          DCD      0x04000068
                          DCD      0x000003ff
                          DCD      DavinciCanParameterCocp
                          DCD      0x04000067
                          DCD      0x000003ff
                          DCD      DavinciCanParameterDocp
                          DCD      0x0400006b
                          DCD      0x000003ff
                          DCD      DavinciCanParameterPF
                          DCD      0x0400006b
                          DCD      0x000003ff
                          DCD      DavinciCanParameterPF
                          DCD      0x0400006b
                          DCD      0x000003ff
                          DCD      DavinciCanParameterBalanceDuty
                          DCD      0x04000080
                          DCD      0x000003ff
                          DCD      DavinciCanParameterBalanceDuty
                          DCD      0x04000081
                          DCD      0x000003ff
                          DCD      DavinciCanParameterBalanceChg
                          DCD      0x04000082
                          DCD      0x000003ff
                          DCD      DavinciCanParameterBalanceDhg
                          DCD      0x04000083
                          DCD      0x000003ff
                          DCD      DavinciCanParameterBalanceRlx
                          DCD      0x04000092
                          DCD      0x000003ff
                          DCD      DavinciCanParameterCurrentCalibration
                          DCD      0x04000091
                          DCD      0x000003ff
                          DCD      DavinciCanParameterVBatCalibration
                          DCD      0x00000000
                          DCD      0x00000000
                          DCD      0x00000000

                          AREA ||.data||, DATA, ALIGN=0

                  IdleCount
000000  00                DCB      0x00

;*** Start embedded assembler ***

#line 1 "..\\..\\..\\AppCommunication\\AppSerialCanDavinciParameter.c"
	AREA ||.rev16_text||, CODE
	THUMB
	EXPORT |__asm___30_AppSerialCanDavinciParameter_c_49018533____REV16|
#line 492 "../../../Drivers/CMSIS/Include/cmsis_armcc.h"
|__asm___30_AppSerialCanDavinciParameter_c_49018533____REV16| PROC
#line 493

 rev16 r0, r0
 bx lr
	ENDP
	AREA ||.revsh_text||, CODE
	THUMB
	EXPORT |__asm___30_AppSerialCanDavinciParameter_c_49018533____REVSH|
#line 507
|__asm___30_AppSerialCanDavinciParameter_c_49018533____REVSH| PROC
#line 508

 revsh r0, r0
 bx lr
	ENDP
	AREA ||.rrx_text||, CODE
	THUMB
	EXPORT |__asm___30_AppSerialCanDavinciParameter_c_49018533____RRX|
#line 694
|__asm___30_AppSerialCanDavinciParameter_c_49018533____RRX| PROC
#line 695

 rrx r0, r0
 bx lr
	ENDP

;*** End   embedded assembler ***
